文件：iic_master.c 编译器版本 HGASM 0202 页次1


   1  0000              ; Generated by holtek-gcc v3.14, Sat Feb 25 11:18:42 2017
   2  0000              ; 
   3  0000              ; Configuration:
   4  0000              ;       without long instruction
   5  0000              ;       Single ROM, Multi-RAM
   6  0000              ;       bits_per_rom_unit:16
   7  0000              ;       with mp1
   8  0000              ;       with tbhp, address(0x9)
   9  0000              ;          Use tabrd-const
  10  0000              ;       
  11  0000              ;       
  12  0000              ;       
  13  0000              ; use 'tabrdc' instead of 'tabrd'
  14  0000              ;       
  15  0000              
  16  0000              #pragma translator "holtek-gcc 4.6.4" "3.14" "build 20130711"
  17  0000              ; Rebuild 10
  18  0000              
  19  0000              ir equ [2]
  20  0000              mp equ [3]
  21  0000              sbp equ [1]
  22  0000              acc equ [5]
  23  0000              bp equ [4]
  24  0000              tblp equ [7]
  25  0000              tbhp equ [9]
  26  0000              status equ [10]
  27  0000              c equ [10].0
  28  0000              ac equ [10].1
  29  0000              z equ [10].2
  30  0000              ov equ [10].3
  31  0000              intc equ [11]
  32  0000              
  33  0000              extern ra:byte
  34  0000              extern rb:byte
  35  0000              extern rc:byte
  36  0000              extern rd:byte
  37  0000              extern re:byte
  38  0000              extern rf:byte
  39  0000              extern rg:byte
  40  0000              extern rh:byte
  41  0000              extern _Crom2Prom:near
  42  0000              extern _Crom2PromNext:near
  43  0000              
  44  0000              RAMBANK 0 @HCCINIT, @HCCINIT0
  45  0000              
  46  0000              RAMBANK 0 @BITDATASEC, @BITDATASEC1
  47  0000              @HCCINIT	.section 'data'
  48  0000              @HCCINIT0	.section 'data'
  49  0000              @BITDATASEC	 .section 'data'
  50  0000              @BITDATASEC1	 .section 'data'
  51  0000              
  52  0000              #pragma debug scope 1 1
  53  0000              	extern __DELAY3:near
  54  0000              	extern __DELAYX3:near
  55  0000              	extern __DELAYX6:near
  56  0000              	extern __DELAYY5:near
  57  0000              	extern __DELAYY3:near
  58  0000              	extern _builtin_holtek_delay_2:byte
  59  0000              public _IIC_DELAY
文件：iic_master.ASM 编译器版本 HGASM 0202 页次2

  60  0000              #pragma debug scope 2 1

  16  0000              #line 16 "C:\Users\JunZh\Desktop\Projects\2017_ 空气盒\开发环境和硬件验证代码\BS82C16A_示例程序\BS82C16A_20150807_LIBV413--V3\20150807_LIBV413\USER_PROGRAM\iic_master.c"
  16  0000              _IIC_DELAY .section 'code'
  16  0000              _IIC_DELAY proc
  16  0000  00              local _IIC_DELAY_2 db 1 dup(?)	; 0,1
  16  0001              #pragma debug variable 8 2 _IIC_DELAY_2+0 "i"
  18  0001              #line 18 "C:\Users\JunZh\Desktop\Projects\2017_ 空气盒\开发环境和硬件验证代码\BS82C16A_示例程序\BS82C16A_20150807_LIBV413--V3\20150807_LIBV413\USER_PROGRAM\iic_master.c"
  18  0000  1F00     R  	clr _IIC_DELAY_2[0]
  18  0001  2800     R  	jmp _L2
  18  0002              _L3:
  20  0002              #line 20 "C:\Users\JunZh\Desktop\Projects\2017_ 空气盒\开发环境和硬件验证代码\BS82C16A_示例程序\BS82C16A_20150807_LIBV413--V3\20150807_LIBV413\USER_PROGRAM\iic_master.c"
  20  0002              ;# 20 "C:\Users\JunZh\Desktop\Projects\2017_ 空气盒\开发环境和硬件验证代码\BS82C16A_示例程序\BS82C16A_20150807_LIBV413--V3\20150807_LIBV413\USER_PROGRAM\iic_master.c" 1
  20  0002  0001        	clr wdt
  18  0003              #line 18 "C:\Users\JunZh\Desktop\Projects\2017_ 空气盒\开发环境和硬件验证代码\BS82C16A_示例程序\BS82C16A_20150807_LIBV413--V3\20150807_LIBV413\USER_PROGRAM\iic_master.c"
  18  0003  1480     R  	inc _IIC_DELAY_2[0]
  18  0004              _L2:
  18  0004  0F06        	mov a,6
  18  0005  0200     R  	sub a,_IIC_DELAY_2[0]
  18  0006  3C0A        	sz c
  18  0007  2800     R  	jmp _L3
  18  0008  0003        	ret
  18  0009              _IIC_DELAY endp
  18  0009              #line 18 "C:\Users\JunZh\Desktop\Projects\2017_ 空气盒\开发环境和硬件验证代码\BS82C16A_示例程序\BS82C16A_20150807_LIBV413--V3\20150807_LIBV413\USER_PROGRAM\iic_master.c"
  18  0009              #pragma debug scope 1 1
  18  0009              ___pcc equ [58]
  18  0009              ___pc equ [57]
  18  0009              public _fun_iicmaster_start
  18  0009              #pragma debug scope 3 1
  26  0009              #line 26 "C:\Users\JunZh\Desktop\Projects\2017_ 空气盒\开发环境和硬件验证代码\BS82C16A_示例程序\BS82C16A_20150807_LIBV413--V3\20150807_LIBV413\USER_PROGRAM\iic_master.c"
  26  0000              _fun_iicmaster_start .section 'code'
  26  0000              _fun_iicmaster_start proc
  28  0000              #line 28 "C:\Users\JunZh\Desktop\Projects\2017_ 空气盒\开发环境和硬件验证代码\BS82C16A_示例程序\BS82C16A_20150807_LIBV413--V3\20150807_LIBV413\USER_PROGRAM\iic_master.c"
  28  0000  33BA        	set [58].7
  29  0001              #line 29 "C:\Users\JunZh\Desktop\Projects\2017_ 空气盒\开发环境和硬件验证代码\BS82C16A_示例程序\BS82C16A_20150807_LIBV413--V3\20150807_LIBV413\USER_PROGRAM\iic_master.c"
  29  0001  3FB9        	sz [57].7
  29  0002  2800     R  	jmp _L6
  32  0003              #line 32 "C:\Users\JunZh\Desktop\Projects\2017_ 空气盒\开发环境和硬件验证代码\BS82C16A_示例程序\BS82C16A_20150807_LIBV413--V3\20150807_LIBV413\USER_PROGRAM\iic_master.c"
  32  0003              ;# 32 "C:\Users\JunZh\Desktop\Projects\2017_ 空气盒\开发环境和硬件验证代码\BS82C16A_示例程序\BS82C16A_20150807_LIBV413--V3\20150807_LIBV413\USER_PROGRAM\iic_master.c" 1
  32  0003  0000        	nop
  33  0004              #line 33 "C:\Users\JunZh\Desktop\Projects\2017_ 空气盒\开发环境和硬件验证代码\BS82C16A_示例程序\BS82C16A_20150807_LIBV413--V3\20150807_LIBV413\USER_PROGRAM\iic_master.c"
  33  0004              ;# 33 "C:\Users\JunZh\Desktop\Projects\2017_ 空气盒\开发环境和硬件验证代码\BS82C16A_示例程序\BS82C16A_20150807_LIBV413--V3\20150807_LIBV413\USER_PROGRAM\iic_master.c" 1
  33  0004  0000        	nop
  33  0005  2800     R  	jmp _L5
  33  0006              _L6:
  37  0006              #line 37 "C:\Users\JunZh\Desktop\Projects\2017_ 空气盒\开发环境和硬件验证代码\BS82C16A_示例程序\BS82C16A_20150807_LIBV413--V3\20150807_LIBV413\USER_PROGRAM\iic_master.c"
  37  0006              ;# 37 "C:\Users\JunZh\Desktop\Projects\2017_ 空气盒\开发环境和硬件验证代码\BS82C16A_示例程序\BS82C16A_20150807_LIBV413--V3\20150807_LIBV413\USER_PROGRAM\iic_master.c" 1
  37  0006  0000        	nop
  38  0007              #line 38 "C:\Users\JunZh\Desktop\Projects\2017_ 空气盒\开发环境和硬件验证代码\BS82C16A_示例程序\BS82C16A_20150807_LIBV413--V3\20150807_LIBV413\USER_PROGRAM\iic_master.c"
  38  0007  3BB9        	snz [57].7
  38  0008  2800     R  	jmp _L5
  40  0009              #line 40 "C:\Users\JunZh\Desktop\Projects\2017_ 空气盒\开发环境和硬件验证代码\BS82C16A_示例程序\BS82C16A_20150807_LIBV413--V3\20150807_LIBV413\USER_PROGRAM\iic_master.c"
  40  0009  333A        	set [58].6
  41  000A              #line 41 "C:\Users\JunZh\Desktop\Projects\2017_ 空气盒\开发环境和硬件验证代码\BS82C16A_示例程序\BS82C16A_20150807_LIBV413--V3\20150807_LIBV413\USER_PROGRAM\iic_master.c"
  41  000A  2000     R  	call _IIC_DELAY
  42  000B              #line 42 "C:\Users\JunZh\Desktop\Projects\2017_ 空气盒\开发环境和硬件验证代码\BS82C16A_示例程序\BS82C16A_20150807_LIBV413--V3\20150807_LIBV413\USER_PROGRAM\iic_master.c"
  42  000B  33BA        	set [58].7
  43  000C              #line 43 "C:\Users\JunZh\Desktop\Projects\2017_ 空气盒\开发环境和硬件验证代码\BS82C16A_示例程序\BS82C16A_20150807_LIBV413--V3\20150807_LIBV413\USER_PROGRAM\iic_master.c"
  43  000C  3739        	clr [57].6
  44  000D              #line 44 "C:\Users\JunZh\Desktop\Projects\2017_ 空气盒\开发环境和硬件验证代码\BS82C16A_示例程序\BS82C16A_20150807_LIBV413--V3\20150807_LIBV413\USER_PROGRAM\iic_master.c"
文件：iic_master.c 编译器版本 HGASM 0202 页次3

  44  000D  373A        	clr [58].6
  45  000E              #line 45 "C:\Users\JunZh\Desktop\Projects\2017_ 空气盒\开发环境和硬件验证代码\BS82C16A_示例程序\BS82C16A_20150807_LIBV413--V3\20150807_LIBV413\USER_PROGRAM\iic_master.c"
  45  000E  2000     R  	call _IIC_DELAY
  45  000F              _L5:
  45  000F  0003        	ret
  45  0010              _fun_iicmaster_start endp
  45  0010              #line 45 "C:\Users\JunZh\Desktop\Projects\2017_ 空气盒\开发环境和硬件验证代码\BS82C16A_示例程序\BS82C16A_20150807_LIBV413--V3\20150807_LIBV413\USER_PROGRAM\iic_master.c"
  45  0010              #pragma debug scope 1 1
  45  0010              public _fun_iicmaster_stop
  45  0010              #pragma debug scope 4 1
  51  0010              #line 51 "C:\Users\JunZh\Desktop\Projects\2017_ 空气盒\开发环境和硬件验证代码\BS82C16A_示例程序\BS82C16A_20150807_LIBV413--V3\20150807_LIBV413\USER_PROGRAM\iic_master.c"
  51  0000              _fun_iicmaster_stop .section 'code'
  51  0000              _fun_iicmaster_stop proc
  52  0000              #line 52 "C:\Users\JunZh\Desktop\Projects\2017_ 空气盒\开发环境和硬件验证代码\BS82C16A_示例程序\BS82C16A_20150807_LIBV413--V3\20150807_LIBV413\USER_PROGRAM\iic_master.c"
  52  0000  37B9        	clr [57].7
  53  0001              #line 53 "C:\Users\JunZh\Desktop\Projects\2017_ 空气盒\开发环境和硬件验证代码\BS82C16A_示例程序\BS82C16A_20150807_LIBV413--V3\20150807_LIBV413\USER_PROGRAM\iic_master.c"
  53  0001  37BA        	clr [58].7
  55  0002              #line 55 "C:\Users\JunZh\Desktop\Projects\2017_ 空气盒\开发环境和硬件验证代码\BS82C16A_示例程序\BS82C16A_20150807_LIBV413--V3\20150807_LIBV413\USER_PROGRAM\iic_master.c"
  55  0002  3739        	clr [57].6
  56  0003              #line 56 "C:\Users\JunZh\Desktop\Projects\2017_ 空气盒\开发环境和硬件验证代码\BS82C16A_示例程序\BS82C16A_20150807_LIBV413--V3\20150807_LIBV413\USER_PROGRAM\iic_master.c"
  56  0003  373A        	clr [58].6
  58  0004              #line 58 "C:\Users\JunZh\Desktop\Projects\2017_ 空气盒\开发环境和硬件验证代码\BS82C16A_示例程序\BS82C16A_20150807_LIBV413--V3\20150807_LIBV413\USER_PROGRAM\iic_master.c"
  58  0004  2000     R  	call _IIC_DELAY
  60  0005              #line 60 "C:\Users\JunZh\Desktop\Projects\2017_ 空气盒\开发环境和硬件验证代码\BS82C16A_示例程序\BS82C16A_20150807_LIBV413--V3\20150807_LIBV413\USER_PROGRAM\iic_master.c"
  60  0005  33BA        	set [58].7
  62  0006              #line 62 "C:\Users\JunZh\Desktop\Projects\2017_ 空气盒\开发环境和硬件验证代码\BS82C16A_示例程序\BS82C16A_20150807_LIBV413--V3\20150807_LIBV413\USER_PROGRAM\iic_master.c"
  62  0006  2000     R  	call _IIC_DELAY
  63  0007              #line 63 "C:\Users\JunZh\Desktop\Projects\2017_ 空气盒\开发环境和硬件验证代码\BS82C16A_示例程序\BS82C16A_20150807_LIBV413--V3\20150807_LIBV413\USER_PROGRAM\iic_master.c"
  63  0007  333A        	set [58].6
  63  0008  0003        	ret
  63  0009              _fun_iicmaster_stop endp
  63  0009              #line 63 "C:\Users\JunZh\Desktop\Projects\2017_ 空气盒\开发环境和硬件验证代码\BS82C16A_示例程序\BS82C16A_20150807_LIBV413--V3\20150807_LIBV413\USER_PROGRAM\iic_master.c"
  63  0009              #pragma debug scope 1 1
  63  0009              public _fun_iicmaster_bytewrite
  63  0009              #pragma debug scope 5 1
  68  0009              #line 68 "C:\Users\JunZh\Desktop\Projects\2017_ 空气盒\开发环境和硬件验证代码\BS82C16A_示例程序\BS82C16A_20150807_LIBV413--V3\20150807_LIBV413\USER_PROGRAM\iic_master.c"
  68  0000              _fun_iicmaster_bytewrite .section 'code'
  68  0000              _fun_iicmaster_bytewrite proc
  68  0000  0005[           local _fun_iicmaster_bytewrite_2 db 5 dup(?)	; 0,5
            00
            ]
  68  0000  0080     R  	mov _fun_iicmaster_bytewrite_2[4],a
  68  0001              #pragma debug variable 8 5 _fun_iicmaster_bytewrite_2+4 "lv8u_data"
  68  0001              #pragma debug variable 8 5 _fun_iicmaster_bytewrite_2+3 "i"
  68  0001              #pragma debug variable 8 5 _fun_iicmaster_bytewrite_2+2 "j"
  68  0001              #pragma debug variable 8 5 _fun_iicmaster_bytewrite_2+1 "k"
  68  0001              #pragma debug variable 8 5 _fun_iicmaster_bytewrite_2+0 "lv8u_writeok"
  70  0001              #line 70 "C:\Users\JunZh\Desktop\Projects\2017_ 空气盒\开发环境和硬件验证代码\BS82C16A_示例程序\BS82C16A_20150807_LIBV413--V3\20150807_LIBV413\USER_PROGRAM\iic_master.c"
  70  0001  0F01        	mov a,1
  70  0002  0080     R  	mov _fun_iicmaster_bytewrite_2[0],a
  72  0003              #line 72 "C:\Users\JunZh\Desktop\Projects\2017_ 空气盒\开发环境和硬件验证代码\BS82C16A_示例程序\BS82C16A_20150807_LIBV413--V3\20150807_LIBV413\USER_PROGRAM\iic_master.c"
  72  0003  1F00     R  	clr _fun_iicmaster_bytewrite_2[1]
  73  0004              #line 73 "C:\Users\JunZh\Desktop\Projects\2017_ 空气盒\开发环境和硬件验证代码\BS82C16A_示例程序\BS82C16A_20150807_LIBV413--V3\20150807_LIBV413\USER_PROGRAM\iic_master.c"
  73  0004  1F00     R  	clr _fun_iicmaster_bytewrite_2[3]
  73  0005              _L13:
  73  0005              #line 73 "C:\Users\JunZh\Desktop\Projects\2017_ 空气盒\开发环境和硬件验证代码\BS82C16A_示例程序\BS82C16A_20150807_LIBV413--V3\20150807_LIBV413\USER_PROGRAM\iic_master.c"
  73  0005  0F07        	mov a,7
  73  0006  0200     R  	sub a,_fun_iicmaster_bytewrite_2[3]
  73  0007  380A        	snz c
  73  0008  2800     R  	jmp _L25
文件：iic_master.c 编译器版本 HGASM 0202 页次4

  75  0009              #line 75 "C:\Users\JunZh\Desktop\Projects\2017_ 空气盒\开发环境和硬件验证代码\BS82C16A_示例程序\BS82C16A_20150807_LIBV413--V3\20150807_LIBV413\USER_PROGRAM\iic_master.c"
  75  0009  37B9        	clr [57].7
  76  000A              #line 76 "C:\Users\JunZh\Desktop\Projects\2017_ 空气盒\开发环境和硬件验证代码\BS82C16A_示例程序\BS82C16A_20150807_LIBV413--V3\20150807_LIBV413\USER_PROGRAM\iic_master.c"
  76  000A  37BA        	clr [58].7
  77  000B              #line 77 "C:\Users\JunZh\Desktop\Projects\2017_ 空气盒\开发环境和硬件验证代码\BS82C16A_示例程序\BS82C16A_20150807_LIBV413--V3\20150807_LIBV413\USER_PROGRAM\iic_master.c"
  77  000B  3800     R  	snz _fun_iicmaster_bytewrite_2[4].7
  77  000C  2800     R  	jmp _L14
  79  000D              #line 79 "C:\Users\JunZh\Desktop\Projects\2017_ 空气盒\开发环境和硬件验证代码\BS82C16A_示例程序\BS82C16A_20150807_LIBV413--V3\20150807_LIBV413\USER_PROGRAM\iic_master.c"
  79  000D  333A        	set [58].6
  79  000E  2800     R  	jmp _L15
  79  000F              _L14:
  83  000F              #line 83 "C:\Users\JunZh\Desktop\Projects\2017_ 空气盒\开发环境和硬件验证代码\BS82C16A_示例程序\BS82C16A_20150807_LIBV413--V3\20150807_LIBV413\USER_PROGRAM\iic_master.c"
  83  000F  3739        	clr [57].6
  84  0010              #line 84 "C:\Users\JunZh\Desktop\Projects\2017_ 空气盒\开发环境和硬件验证代码\BS82C16A_示例程序\BS82C16A_20150807_LIBV413--V3\20150807_LIBV413\USER_PROGRAM\iic_master.c"
  84  0010  373A        	clr [58].6
  84  0011              _L15:
  86  0011              #line 86 "C:\Users\JunZh\Desktop\Projects\2017_ 空气盒\开发环境和硬件验证代码\BS82C16A_示例程序\BS82C16A_20150807_LIBV413--V3\20150807_LIBV413\USER_PROGRAM\iic_master.c"
  86  0011  2000     R  	call _IIC_DELAY
  87  0012              #line 87 "C:\Users\JunZh\Desktop\Projects\2017_ 空气盒\开发环境和硬件验证代码\BS82C16A_示例程序\BS82C16A_20150807_LIBV413--V3\20150807_LIBV413\USER_PROGRAM\iic_master.c"
  87  0012  33BA        	set [58].7
  89  0013              #line 89 "C:\Users\JunZh\Desktop\Projects\2017_ 空气盒\开发环境和硬件验证代码\BS82C16A_示例程序\BS82C16A_20150807_LIBV413--V3\20150807_LIBV413\USER_PROGRAM\iic_master.c"
  89  0013  1080     R  	sz _fun_iicmaster_bytewrite_2[3]
  89  0014  2800     R  	jmp _L17
  89  0015              _L22:
  93  0015              #line 93 "C:\Users\JunZh\Desktop\Projects\2017_ 空气盒\开发环境和硬件验证代码\BS82C16A_示例程序\BS82C16A_20150807_LIBV413--V3\20150807_LIBV413\USER_PROGRAM\iic_master.c"
  93  0015  3FB9        	sz [57].7
  93  0016  2800     R  	jmp _L17
  95  0017              #line 95 "C:\Users\JunZh\Desktop\Projects\2017_ 空气盒\开发环境和硬件验证代码\BS82C16A_示例程序\BS82C16A_20150807_LIBV413--V3\20150807_LIBV413\USER_PROGRAM\iic_master.c"
  95  0017              ;# 95 "C:\Users\JunZh\Desktop\Projects\2017_ 空气盒\开发环境和硬件验证代码\BS82C16A_示例程序\BS82C16A_20150807_LIBV413--V3\20150807_LIBV413\USER_PROGRAM\iic_master.c" 1
  95  0017  0000        	nop
  96  0018              #line 96 "C:\Users\JunZh\Desktop\Projects\2017_ 空气盒\开发环境和硬件验证代码\BS82C16A_示例程序\BS82C16A_20150807_LIBV413--V3\20150807_LIBV413\USER_PROGRAM\iic_master.c"
  96  0018  1F00     R  	clr _fun_iicmaster_bytewrite_2[2]
  96  0019              _L19:
  96  0019  0F63        	mov a,99
  96  001A  0200     R  	sub a,_fun_iicmaster_bytewrite_2[2]
  96  001B  380A        	snz c
  96  001C  2800     R  	jmp _L28
  96  001D  1480     R  	inc _fun_iicmaster_bytewrite_2[2]
  96  001E  2800     R  	jmp _L19
  96  001F              _L28:
  97  001F              #line 97 "C:\Users\JunZh\Desktop\Projects\2017_ 空气盒\开发环境和硬件验证代码\BS82C16A_示例程序\BS82C16A_20150807_LIBV413--V3\20150807_LIBV413\USER_PROGRAM\iic_master.c"
  97  001F  1480     R  	inc _fun_iicmaster_bytewrite_2[1]
  98  0020              #line 98 "C:\Users\JunZh\Desktop\Projects\2017_ 空气盒\开发环境和硬件验证代码\BS82C16A_示例程序\BS82C16A_20150807_LIBV413--V3\20150807_LIBV413\USER_PROGRAM\iic_master.c"
  98  0020  0F14        	mov a,20
  98  0021  0200     R  	sub a,_fun_iicmaster_bytewrite_2[1]
  98  0022  3C0A        	sz c
  98  0023  2800     R  	jmp _L22
 100  0024              #line 100 "C:\Users\JunZh\Desktop\Projects\2017_ 空气盒\开发环境和硬件验证代码\BS82C16A_示例程序\BS82C16A_20150807_LIBV413--V3\20150807_LIBV413\USER_PROGRAM\iic_master.c"
 100  0024  1F00     R  	clr _fun_iicmaster_bytewrite_2[0]
 100  0025              _L17:
 111  0025              #line 111 "C:\Users\JunZh\Desktop\Projects\2017_ 空气盒\开发环境和硬件验证代码\BS82C16A_示例程序\BS82C16A_20150807_LIBV413--V3\20150807_LIBV413\USER_PROGRAM\iic_master.c"
 111  0025  1080     R  	sz _fun_iicmaster_bytewrite_2[0]
 111  0026  2800     R  	jmp _LI1
 111  0027  2800     R  	jmp _L25
 111  0028              _LI1:
 116  0028              #line 116 "C:\Users\JunZh\Desktop\Projects\2017_ 空气盒\开发环境和硬件验证代码\BS82C16A_示例程序\BS82C16A_20150807_LIBV413--V3\20150807_LIBV413\USER_PROGRAM\iic_master.c"
 116  0028  2000     R  	call _IIC_DELAY
 117  0029              #line 117 "C:\Users\JunZh\Desktop\Projects\2017_ 空气盒\开发环境和硬件验证代码\BS82C16A_示例程序\BS82C16A_20150807_LIBV413--V3\20150807_LIBV413\USER_PROGRAM\iic_master.c"
 117  0029  0700     R  	mov a,_fun_iicmaster_bytewrite_2[4]
 117  002A  0380     R  	addm a,_fun_iicmaster_bytewrite_2[4]
文件：iic_master.c 编译器版本 HGASM 0202 页次5

  73  002B              #line 73 "C:\Users\JunZh\Desktop\Projects\2017_ 空气盒\开发环境和硬件验证代码\BS82C16A_示例程序\BS82C16A_20150807_LIBV413--V3\20150807_LIBV413\USER_PROGRAM\iic_master.c"
  73  002B  1480     R  	inc _fun_iicmaster_bytewrite_2[3]
  73  002C  2800     R  	jmp _L13
  73  002D              _L25:
 120  002D              #line 120 "C:\Users\JunZh\Desktop\Projects\2017_ 空气盒\开发环境和硬件验证代码\BS82C16A_示例程序\BS82C16A_20150807_LIBV413--V3\20150807_LIBV413\USER_PROGRAM\iic_master.c"
 120  002D  0700     R  	mov a,_fun_iicmaster_bytewrite_2[0]
 120  002E  0080     E  	mov ra,a
 121  002F              #line 121 "C:\Users\JunZh\Desktop\Projects\2017_ 空气盒\开发环境和硬件验证代码\BS82C16A_示例程序\BS82C16A_20150807_LIBV413--V3\20150807_LIBV413\USER_PROGRAM\iic_master.c"
 121  002F  0700     E  	mov a,ra
 121  0030  0003        	ret
 121  0031              _fun_iicmaster_bytewrite endp
 121  0031              #line 121 "C:\Users\JunZh\Desktop\Projects\2017_ 空气盒\开发环境和硬件验证代码\BS82C16A_示例程序\BS82C16A_20150807_LIBV413--V3\20150807_LIBV413\USER_PROGRAM\iic_master.c"
 121  0031              #pragma debug scope 1 1
 121  0031              public _fun_iicmaster_rxak
 121  0031              #pragma debug scope 6 1
 124  0031              #line 124 "C:\Users\JunZh\Desktop\Projects\2017_ 空气盒\开发环境和硬件验证代码\BS82C16A_示例程序\BS82C16A_20150807_LIBV413--V3\20150807_LIBV413\USER_PROGRAM\iic_master.c"
 124  0000              _fun_iicmaster_rxak .section 'code'
 124  0000              _fun_iicmaster_rxak proc
 127  0000              #line 127 "C:\Users\JunZh\Desktop\Projects\2017_ 空气盒\开发环境和硬件验证代码\BS82C16A_示例程序\BS82C16A_20150807_LIBV413--V3\20150807_LIBV413\USER_PROGRAM\iic_master.c"
 127  0000  37B9        	clr [57].7
 128  0001              #line 128 "C:\Users\JunZh\Desktop\Projects\2017_ 空气盒\开发环境和硬件验证代码\BS82C16A_示例程序\BS82C16A_20150807_LIBV413--V3\20150807_LIBV413\USER_PROGRAM\iic_master.c"
 128  0001  37BA        	clr [58].7
 130  0002              #line 130 "C:\Users\JunZh\Desktop\Projects\2017_ 空气盒\开发环境和硬件验证代码\BS82C16A_示例程序\BS82C16A_20150807_LIBV413--V3\20150807_LIBV413\USER_PROGRAM\iic_master.c"
 130  0002  333A        	set [58].6
 131  0003              #line 131 "C:\Users\JunZh\Desktop\Projects\2017_ 空气盒\开发环境和硬件验证代码\BS82C16A_示例程序\BS82C16A_20150807_LIBV413--V3\20150807_LIBV413\USER_PROGRAM\iic_master.c"
 131  0003  2000     R  	call _IIC_DELAY
 132  0004              #line 132 "C:\Users\JunZh\Desktop\Projects\2017_ 空气盒\开发环境和硬件验证代码\BS82C16A_示例程序\BS82C16A_20150807_LIBV413--V3\20150807_LIBV413\USER_PROGRAM\iic_master.c"
 132  0004  33BA        	set [58].7
 133  0005              #line 133 "C:\Users\JunZh\Desktop\Projects\2017_ 空气盒\开发环境和硬件验证代码\BS82C16A_示例程序\BS82C16A_20150807_LIBV413--V3\20150807_LIBV413\USER_PROGRAM\iic_master.c"
 133  0005              ;# 133 "C:\Users\JunZh\Desktop\Projects\2017_ 空气盒\开发环境和硬件验证代码\BS82C16A_示例程序\BS82C16A_20150807_LIBV413--V3\20150807_LIBV413\USER_PROGRAM\iic_master.c" 1
 133  0005  0000        	nop
 134  0006              #line 134 "C:\Users\JunZh\Desktop\Projects\2017_ 空气盒\开发环境和硬件验证代码\BS82C16A_示例程序\BS82C16A_20150807_LIBV413--V3\20150807_LIBV413\USER_PROGRAM\iic_master.c"
 134  0006              ;# 134 "C:\Users\JunZh\Desktop\Projects\2017_ 空气盒\开发环境和硬件验证代码\BS82C16A_示例程序\BS82C16A_20150807_LIBV413--V3\20150807_LIBV413\USER_PROGRAM\iic_master.c" 1
 134  0006  0000        	nop
 134  0007  0F04        	mov a,4
 134  0008  0080     E  	mov rb,a
 126  0009              #line 126 "C:\Users\JunZh\Desktop\Projects\2017_ 空气盒\开发环境和硬件验证代码\BS82C16A_示例程序\BS82C16A_20150807_LIBV413--V3\20150807_LIBV413\USER_PROGRAM\iic_master.c"
 126  0009  1F00     E  	clr ra
 126  000A              _L32:
 137  000A              #line 137 "C:\Users\JunZh\Desktop\Projects\2017_ 空气盒\开发环境和硬件验证代码\BS82C16A_示例程序\BS82C16A_20150807_LIBV413--V3\20150807_LIBV413\USER_PROGRAM\iic_master.c"
 137  000A  3F39        	sz [57].6
 137  000B  2800     R  	jmp _L30
 139  000C              #line 139 "C:\Users\JunZh\Desktop\Projects\2017_ 空气盒\开发环境和硬件验证代码\BS82C16A_示例程序\BS82C16A_20150807_LIBV413--V3\20150807_LIBV413\USER_PROGRAM\iic_master.c"
 139  000C  1480     E  	inc ra
 139  000D              _L30:
 139  000D  1780     E  	sdz rb
 139  000E  2800     R  	jmp _L32
 143  000F              #line 143 "C:\Users\JunZh\Desktop\Projects\2017_ 空气盒\开发环境和硬件验证代码\BS82C16A_示例程序\BS82C16A_20150807_LIBV413--V3\20150807_LIBV413\USER_PROGRAM\iic_master.c"
 143  000F  37B9        	clr [57].7
 144  0010              #line 144 "C:\Users\JunZh\Desktop\Projects\2017_ 空气盒\开发环境和硬件验证代码\BS82C16A_示例程序\BS82C16A_20150807_LIBV413--V3\20150807_LIBV413\USER_PROGRAM\iic_master.c"
 144  0010  37BA        	clr [58].7
 146  0011              #line 146 "C:\Users\JunZh\Desktop\Projects\2017_ 空气盒\开发环境和硬件验证代码\BS82C16A_示例程序\BS82C16A_20150807_LIBV413--V3\20150807_LIBV413\USER_PROGRAM\iic_master.c"
 146  0011  0F01        	mov a,1
 146  0012  0080     E  	mov rb,a
 146  0013  0F02        	mov a,2
 146  0014  0200     E  	sub a,ra
 146  0015  380A        	snz c
 146  0016  2800     R  	jmp _L33
 146  0017  1F00     E  	clr rb
 146  0018              _L33:
文件：iic_master.c 编译器版本 HGASM 0202 页次6

 154  0018              #line 154 "C:\Users\JunZh\Desktop\Projects\2017_ 空气盒\开发环境和硬件验证代码\BS82C16A_示例程序\BS82C16A_20150807_LIBV413--V3\20150807_LIBV413\USER_PROGRAM\iic_master.c"
 154  0018  0700     E  	mov a,rb
 154  0019  0003        	ret
 154  001A              _fun_iicmaster_rxak endp
 154  001A              #line 154 "C:\Users\JunZh\Desktop\Projects\2017_ 空气盒\开发环境和硬件验证代码\BS82C16A_示例程序\BS82C16A_20150807_LIBV413--V3\20150807_LIBV413\USER_PROGRAM\iic_master.c"
 154  001A              #pragma debug scope 1 1
 154  001A              public _fun_iicmaster_byteread
 154  001A              #pragma debug scope 7 1
 157  001A              #line 157 "C:\Users\JunZh\Desktop\Projects\2017_ 空气盒\开发环境和硬件验证代码\BS82C16A_示例程序\BS82C16A_20150807_LIBV413--V3\20150807_LIBV413\USER_PROGRAM\iic_master.c"
 157  0000              _fun_iicmaster_byteread .section 'code'
 157  0000              _fun_iicmaster_byteread proc
 157  0000  0002[           local _fun_iicmaster_byteread_2 db 2 dup(?)	; 0,2
            00
            ]
 157  0002              #pragma debug variable 8 7 _fun_iicmaster_byteread_2+0 "lv8u_data"
 157  0000  0F08        	mov a,8
 157  0001  0080     R  	mov _fun_iicmaster_byteread_2[1],a
 159  0002              #line 159 "C:\Users\JunZh\Desktop\Projects\2017_ 空气盒\开发环境和硬件验证代码\BS82C16A_示例程序\BS82C16A_20150807_LIBV413--V3\20150807_LIBV413\USER_PROGRAM\iic_master.c"
 159  0002  1F00     R  	clr _fun_iicmaster_byteread_2[0]
 159  0003              _L37:
 162  0003              #line 162 "C:\Users\JunZh\Desktop\Projects\2017_ 空气盒\开发环境和硬件验证代码\BS82C16A_示例程序\BS82C16A_20150807_LIBV413--V3\20150807_LIBV413\USER_PROGRAM\iic_master.c"
 162  0003  0700     R  	mov a,_fun_iicmaster_byteread_2[0]
 162  0004  0380     R  	addm a,_fun_iicmaster_byteread_2[0]
 164  0005              #line 164 "C:\Users\JunZh\Desktop\Projects\2017_ 空气盒\开发环境和硬件验证代码\BS82C16A_示例程序\BS82C16A_20150807_LIBV413--V3\20150807_LIBV413\USER_PROGRAM\iic_master.c"
 164  0005  37B9        	clr [57].7
 165  0006              #line 165 "C:\Users\JunZh\Desktop\Projects\2017_ 空气盒\开发环境和硬件验证代码\BS82C16A_示例程序\BS82C16A_20150807_LIBV413--V3\20150807_LIBV413\USER_PROGRAM\iic_master.c"
 165  0006  37BA        	clr [58].7
 166  0007              #line 166 "C:\Users\JunZh\Desktop\Projects\2017_ 空气盒\开发环境和硬件验证代码\BS82C16A_示例程序\BS82C16A_20150807_LIBV413--V3\20150807_LIBV413\USER_PROGRAM\iic_master.c"
 166  0007  333A        	set [58].6
 167  0008              #line 167 "C:\Users\JunZh\Desktop\Projects\2017_ 空气盒\开发环境和硬件验证代码\BS82C16A_示例程序\BS82C16A_20150807_LIBV413--V3\20150807_LIBV413\USER_PROGRAM\iic_master.c"
 167  0008  2000     R  	call _IIC_DELAY
 168  0009              #line 168 "C:\Users\JunZh\Desktop\Projects\2017_ 空气盒\开发环境和硬件验证代码\BS82C16A_示例程序\BS82C16A_20150807_LIBV413--V3\20150807_LIBV413\USER_PROGRAM\iic_master.c"
 168  0009  33BA        	set [58].7
 169  000A              #line 169 "C:\Users\JunZh\Desktop\Projects\2017_ 空气盒\开发环境和硬件验证代码\BS82C16A_示例程序\BS82C16A_20150807_LIBV413--V3\20150807_LIBV413\USER_PROGRAM\iic_master.c"
 169  000A  2000     R  	call _IIC_DELAY
 170  000B              #line 170 "C:\Users\JunZh\Desktop\Projects\2017_ 空气盒\开发环境和硬件验证代码\BS82C16A_示例程序\BS82C16A_20150807_LIBV413--V3\20150807_LIBV413\USER_PROGRAM\iic_master.c"
 170  000B  3B39        	snz [57].6
 170  000C  2800     R  	jmp _L35
 172  000D              #line 172 "C:\Users\JunZh\Desktop\Projects\2017_ 空气盒\开发环境和硬件验证代码\BS82C16A_示例程序\BS82C16A_20150807_LIBV413--V3\20150807_LIBV413\USER_PROGRAM\iic_master.c"
 172  000D  3000     R  	set _fun_iicmaster_byteread_2[0].0
 172  000E              _L35:
 172  000E  1780     R  	sdz _fun_iicmaster_byteread_2[1]
 172  000F  2800     R  	jmp _L37
 176  0010              #line 176 "C:\Users\JunZh\Desktop\Projects\2017_ 空气盒\开发环境和硬件验证代码\BS82C16A_示例程序\BS82C16A_20150807_LIBV413--V3\20150807_LIBV413\USER_PROGRAM\iic_master.c"
 176  0010  0700     R  	mov a,_fun_iicmaster_byteread_2[0]
 176  0011  0003        	ret
 176  0012              _fun_iicmaster_byteread endp
 176  0012              #line 176 "C:\Users\JunZh\Desktop\Projects\2017_ 空气盒\开发环境和硬件验证代码\BS82C16A_示例程序\BS82C16A_20150807_LIBV413--V3\20150807_LIBV413\USER_PROGRAM\iic_master.c"
 176  0012              #pragma debug scope 1 1
 176  0012              public _fun_iicmaster_txak
 176  0012              #pragma debug scope 8 1
 179  0012              #line 179 "C:\Users\JunZh\Desktop\Projects\2017_ 空气盒\开发环境和硬件验证代码\BS82C16A_示例程序\BS82C16A_20150807_LIBV413--V3\20150807_LIBV413\USER_PROGRAM\iic_master.c"
 179  0000              _fun_iicmaster_txak .section 'code'
 179  0000              _fun_iicmaster_txak proc
 180  0000              #line 180 "C:\Users\JunZh\Desktop\Projects\2017_ 空气盒\开发环境和硬件验证代码\BS82C16A_示例程序\BS82C16A_20150807_LIBV413--V3\20150807_LIBV413\USER_PROGRAM\iic_master.c"
 180  0000  37B9        	clr [57].7
 181  0001              #line 181 "C:\Users\JunZh\Desktop\Projects\2017_ 空气盒\开发环境和硬件验证代码\BS82C16A_示例程序\BS82C16A_20150807_LIBV413--V3\20150807_LIBV413\USER_PROGRAM\iic_master.c"
 181  0001  37BA        	clr [58].7
 182  0002              #line 182 "C:\Users\JunZh\Desktop\Projects\2017_ 空气盒\开发环境和硬件验证代码\BS82C16A_示例程序\BS82C16A_20150807_LIBV413--V3\20150807_LIBV413\USER_PROGRAM\iic_master.c"
 182  0002  2000     R  	call _IIC_DELAY
文件：iic_master.c 编译器版本 HGASM 0202 页次7

 183  0003              #line 183 "C:\Users\JunZh\Desktop\Projects\2017_ 空气盒\开发环境和硬件验证代码\BS82C16A_示例程序\BS82C16A_20150807_LIBV413--V3\20150807_LIBV413\USER_PROGRAM\iic_master.c"
 183  0003  3739        	clr [57].6
 184  0004              #line 184 "C:\Users\JunZh\Desktop\Projects\2017_ 空气盒\开发环境和硬件验证代码\BS82C16A_示例程序\BS82C16A_20150807_LIBV413--V3\20150807_LIBV413\USER_PROGRAM\iic_master.c"
 184  0004  373A        	clr [58].6
 186  0005              #line 186 "C:\Users\JunZh\Desktop\Projects\2017_ 空气盒\开发环境和硬件验证代码\BS82C16A_示例程序\BS82C16A_20150807_LIBV413--V3\20150807_LIBV413\USER_PROGRAM\iic_master.c"
 186  0005  33BA        	set [58].7
 187  0006              #line 187 "C:\Users\JunZh\Desktop\Projects\2017_ 空气盒\开发环境和硬件验证代码\BS82C16A_示例程序\BS82C16A_20150807_LIBV413--V3\20150807_LIBV413\USER_PROGRAM\iic_master.c"
 187  0006  2000     R  	call _IIC_DELAY
 188  0007              #line 188 "C:\Users\JunZh\Desktop\Projects\2017_ 空气盒\开发环境和硬件验证代码\BS82C16A_示例程序\BS82C16A_20150807_LIBV413--V3\20150807_LIBV413\USER_PROGRAM\iic_master.c"
 188  0007  37B9        	clr [57].7
 189  0008              #line 189 "C:\Users\JunZh\Desktop\Projects\2017_ 空气盒\开发环境和硬件验证代码\BS82C16A_示例程序\BS82C16A_20150807_LIBV413--V3\20150807_LIBV413\USER_PROGRAM\iic_master.c"
 189  0008  37BA        	clr [58].7
 189  0009  0003        	ret
 189  000A              _fun_iicmaster_txak endp
 189  000A              #line 189 "C:\Users\JunZh\Desktop\Projects\2017_ 空气盒\开发环境和硬件验证代码\BS82C16A_示例程序\BS82C16A_20150807_LIBV413--V3\20150807_LIBV413\USER_PROGRAM\iic_master.c"
 189  000A              #pragma debug scope 1 1
 189  000A              public _fun_iicmaster_txnoak
 189  000A              #pragma debug scope 9 1
 193  000A              #line 193 "C:\Users\JunZh\Desktop\Projects\2017_ 空气盒\开发环境和硬件验证代码\BS82C16A_示例程序\BS82C16A_20150807_LIBV413--V3\20150807_LIBV413\USER_PROGRAM\iic_master.c"
 193  0000              _fun_iicmaster_txnoak .section 'code'
 193  0000              _fun_iicmaster_txnoak proc
 194  0000              #line 194 "C:\Users\JunZh\Desktop\Projects\2017_ 空气盒\开发环境和硬件验证代码\BS82C16A_示例程序\BS82C16A_20150807_LIBV413--V3\20150807_LIBV413\USER_PROGRAM\iic_master.c"
 194  0000  37B9        	clr [57].7
 195  0001              #line 195 "C:\Users\JunZh\Desktop\Projects\2017_ 空气盒\开发环境和硬件验证代码\BS82C16A_示例程序\BS82C16A_20150807_LIBV413--V3\20150807_LIBV413\USER_PROGRAM\iic_master.c"
 195  0001  37BA        	clr [58].7
 196  0002              #line 196 "C:\Users\JunZh\Desktop\Projects\2017_ 空气盒\开发环境和硬件验证代码\BS82C16A_示例程序\BS82C16A_20150807_LIBV413--V3\20150807_LIBV413\USER_PROGRAM\iic_master.c"
 196  0002  2000     R  	call _IIC_DELAY
 197  0003              #line 197 "C:\Users\JunZh\Desktop\Projects\2017_ 空气盒\开发环境和硬件验证代码\BS82C16A_示例程序\BS82C16A_20150807_LIBV413--V3\20150807_LIBV413\USER_PROGRAM\iic_master.c"
 197  0003  333A        	set [58].6
 199  0004              #line 199 "C:\Users\JunZh\Desktop\Projects\2017_ 空气盒\开发环境和硬件验证代码\BS82C16A_示例程序\BS82C16A_20150807_LIBV413--V3\20150807_LIBV413\USER_PROGRAM\iic_master.c"
 199  0004  33BA        	set [58].7
 200  0005              #line 200 "C:\Users\JunZh\Desktop\Projects\2017_ 空气盒\开发环境和硬件验证代码\BS82C16A_示例程序\BS82C16A_20150807_LIBV413--V3\20150807_LIBV413\USER_PROGRAM\iic_master.c"
 200  0005  2000     R  	call _IIC_DELAY
 201  0006              #line 201 "C:\Users\JunZh\Desktop\Projects\2017_ 空气盒\开发环境和硬件验证代码\BS82C16A_示例程序\BS82C16A_20150807_LIBV413--V3\20150807_LIBV413\USER_PROGRAM\iic_master.c"
 201  0006  37B9        	clr [57].7
 202  0007              #line 202 "C:\Users\JunZh\Desktop\Projects\2017_ 空气盒\开发环境和硬件验证代码\BS82C16A_示例程序\BS82C16A_20150807_LIBV413--V3\20150807_LIBV413\USER_PROGRAM\iic_master.c"
 202  0007  37BA        	clr [58].7
 202  0008  0003        	ret
 202  0009              _fun_iicmaster_txnoak endp
 202  0009              #line 202 "C:\Users\JunZh\Desktop\Projects\2017_ 空气盒\开发环境和硬件验证代码\BS82C16A_示例程序\BS82C16A_20150807_LIBV413--V3\20150807_LIBV413\USER_PROGRAM\iic_master.c"
 202  0009              #pragma debug scope 1 1
 202  0009              _gv8u_iicmaster_txdata equ [432]
 202  0009              public _fun_iicmaster_sendbytes
 202  0009              #pragma debug scope 10 1
 206  0009              #line 206 "C:\Users\JunZh\Desktop\Projects\2017_ 空气盒\开发环境和硬件验证代码\BS82C16A_示例程序\BS82C16A_20150807_LIBV413--V3\20150807_LIBV413\USER_PROGRAM\iic_master.c"
 206  0000              _fun_iicmaster_sendbytes .section 'code'
 206  0000              _fun_iicmaster_sendbytes proc
 206  0000  0002[           local _fun_iicmaster_sendbytes_2 db 2 dup(?)	; 0,2
            00
            ]
 206  0000  0080     R  	mov _fun_iicmaster_sendbytes_2[0],a
 206  0001              #pragma debug variable 8 10 _fun_iicmaster_sendbytes_2+0 "lv8u_senlen"
 206  0001              #pragma debug variable 8 10 _fun_iicmaster_sendbytes_2+1 "i"
 209  0001              #line 209 "C:\Users\JunZh\Desktop\Projects\2017_ 空气盒\开发环境和硬件验证代码\BS82C16A_示例程序\BS82C16A_20150807_LIBV413--V3\20150807_LIBV413\USER_PROGRAM\iic_master.c"
 209  0001  0FB0        	mov a,low offset _gv8u_iicmaster_txdata
 209  0002  0083        	mov mp,a
 209  0003  0F01        	mov a,high offset _gv8u_iicmaster_txdata
 209  0004  0081        	mov sbp,a
 209  0005  0701        	mov a,sbp
 209  0006  0084        	mov bp,a
文件：iic_master.c 编译器版本 HGASM 0202 页次8

 209  0007  0FB0        	mov a,176
 209  0008  0082        	mov ir,a
 210  0009              #line 210 "C:\Users\JunZh\Desktop\Projects\2017_ 空气盒\开发环境和硬件验证代码\BS82C16A_示例程序\BS82C16A_20150807_LIBV413--V3\20150807_LIBV413\USER_PROGRAM\iic_master.c"
 210  0009  1483        	inc mp
 210  000A  3D0A        	sz z
 210  000B  1481        	inc sbp
 210  000C  0701        	mov a,sbp
 210  000D  0084        	mov bp,a
 210  000E  0F37        	mov a,55
 210  000F  0082        	mov ir,a
 211  0010              #line 211 "C:\Users\JunZh\Desktop\Projects\2017_ 空气盒\开发环境和硬件验证代码\BS82C16A_示例程序\BS82C16A_20150807_LIBV413--V3\20150807_LIBV413\USER_PROGRAM\iic_master.c"
 211  0010  1483        	inc mp
 211  0011  3D0A        	sz z
 211  0012  1481        	inc sbp
 211  0013  0701        	mov a,sbp
 211  0014  0084        	mov bp,a
 211  0015  0F37        	mov a,55
 211  0016  0082        	mov ir,a
 212  0017              #line 212 "C:\Users\JunZh\Desktop\Projects\2017_ 空气盒\开发环境和硬件验证代码\BS82C16A_示例程序\BS82C16A_20150807_LIBV413--V3\20150807_LIBV413\USER_PROGRAM\iic_master.c"
 212  0017  1483        	inc mp
 212  0018  3D0A        	sz z
 212  0019  1481        	inc sbp
 212  001A  0701        	mov a,sbp
 212  001B  0084        	mov bp,a
 212  001C  0F37        	mov a,55
 212  001D  0082        	mov ir,a
 213  001E              #line 213 "C:\Users\JunZh\Desktop\Projects\2017_ 空气盒\开发环境和硬件验证代码\BS82C16A_示例程序\BS82C16A_20150807_LIBV413--V3\20150807_LIBV413\USER_PROGRAM\iic_master.c"
 213  001E  1483        	inc mp
 213  001F  3D0A        	sz z
 213  0020  1481        	inc sbp
 213  0021  0701        	mov a,sbp
 213  0022  0084        	mov bp,a
 213  0023  0F37        	mov a,55
 213  0024  0082        	mov ir,a
 214  0025              #line 214 "C:\Users\JunZh\Desktop\Projects\2017_ 空气盒\开发环境和硬件验证代码\BS82C16A_示例程序\BS82C16A_20150807_LIBV413--V3\20150807_LIBV413\USER_PROGRAM\iic_master.c"
 214  0025  1483        	inc mp
 214  0026  3D0A        	sz z
 214  0027  1481        	inc sbp
 214  0028  0701        	mov a,sbp
 214  0029  0084        	mov bp,a
 214  002A  0F37        	mov a,55
 214  002B  0082        	mov ir,a
 215  002C              #line 215 "C:\Users\JunZh\Desktop\Projects\2017_ 空气盒\开发环境和硬件验证代码\BS82C16A_示例程序\BS82C16A_20150807_LIBV413--V3\20150807_LIBV413\USER_PROGRAM\iic_master.c"
 215  002C  1483        	inc mp
 215  002D  3D0A        	sz z
 215  002E  1481        	inc sbp
 215  002F  0701        	mov a,sbp
 215  0030  0084        	mov bp,a
 215  0031  0F37        	mov a,55
 215  0032  0082        	mov ir,a
 216  0033              #line 216 "C:\Users\JunZh\Desktop\Projects\2017_ 空气盒\开发环境和硬件验证代码\BS82C16A_示例程序\BS82C16A_20150807_LIBV413--V3\20150807_LIBV413\USER_PROGRAM\iic_master.c"
 216  0033  1483        	inc mp
 216  0034  3D0A        	sz z
 216  0035  1481        	inc sbp
 216  0036  0701        	mov a,sbp
 216  0037  0084        	mov bp,a
 216  0038  0F37        	mov a,55
 216  0039  0082        	mov ir,a
 217  003A              #line 217 "C:\Users\JunZh\Desktop\Projects\2017_ 空气盒\开发环境和硬件验证代码\BS82C16A_示例程序\BS82C16A_20150807_LIBV413--V3\20150807_LIBV413\USER_PROGRAM\iic_master.c"
 217  003A  1483        	inc mp
文件：iic_master.c 编译器版本 HGASM 0202 页次9

 217  003B  3D0A        	sz z
 217  003C  1481        	inc sbp
 217  003D  0701        	mov a,sbp
 217  003E  0084        	mov bp,a
 217  003F  0F37        	mov a,55
 217  0040  0082        	mov ir,a
 218  0041              #line 218 "C:\Users\JunZh\Desktop\Projects\2017_ 空气盒\开发环境和硬件验证代码\BS82C16A_示例程序\BS82C16A_20150807_LIBV413--V3\20150807_LIBV413\USER_PROGRAM\iic_master.c"
 218  0041  1483        	inc mp
 218  0042  3D0A        	sz z
 218  0043  1481        	inc sbp
 218  0044  0701        	mov a,sbp
 218  0045  0084        	mov bp,a
 218  0046  0F37        	mov a,55
 218  0047  0082        	mov ir,a
 219  0048              #line 219 "C:\Users\JunZh\Desktop\Projects\2017_ 空气盒\开发环境和硬件验证代码\BS82C16A_示例程序\BS82C16A_20150807_LIBV413--V3\20150807_LIBV413\USER_PROGRAM\iic_master.c"
 219  0048  2000     R  	call _fun_iicmaster_start
 220  0049              #line 220 "C:\Users\JunZh\Desktop\Projects\2017_ 空气盒\开发环境和硬件验证代码\BS82C16A_示例程序\BS82C16A_20150807_LIBV413--V3\20150807_LIBV413\USER_PROGRAM\iic_master.c"
 220  0049  0F54        	mov a,84
 220  004A  2000     R  	call _fun_iicmaster_bytewrite
 221  004B              #line 221 "C:\Users\JunZh\Desktop\Projects\2017_ 空气盒\开发环境和硬件验证代码\BS82C16A_示例程序\BS82C16A_20150807_LIBV413--V3\20150807_LIBV413\USER_PROGRAM\iic_master.c"
 221  004B  2000     R  	call _fun_iicmaster_rxak
 221  004C  0080     E  	mov ra,a
 221  004D  1080     E  	sz ra
 221  004E  2800     R  	jmp _LI2
 221  004F  2800     R  	jmp _L45
 221  0050              _LI2:
 221  0050              #line 221 "C:\Users\JunZh\Desktop\Projects\2017_ 空气盒\开发环境和硬件验证代码\BS82C16A_示例程序\BS82C16A_20150807_LIBV413--V3\20150807_LIBV413\USER_PROGRAM\iic_master.c"
 221  0050  1F00     R  	clr _fun_iicmaster_sendbytes_2[1]
 221  0051              _L47:
 224  0051              #line 224 "C:\Users\JunZh\Desktop\Projects\2017_ 空气盒\开发环境和硬件验证代码\BS82C16A_示例程序\BS82C16A_20150807_LIBV413--V3\20150807_LIBV413\USER_PROGRAM\iic_master.c"
 224  0051  0700     R  	mov a,_fun_iicmaster_sendbytes_2[1]
 224  0052  0200     R  	sub a,_fun_iicmaster_sendbytes_2[0]
 224  0053  3C0A        	sz c
 224  0054  2800     R  	jmp _L45
 227  0055              #line 227 "C:\Users\JunZh\Desktop\Projects\2017_ 空气盒\开发环境和硬件验证代码\BS82C16A_示例程序\BS82C16A_20150807_LIBV413--V3\20150807_LIBV413\USER_PROGRAM\iic_master.c"
 227  0055  0FB0        	mov a,low offset _gv8u_iicmaster_txdata
 227  0056  0300     R  	add a,_fun_iicmaster_sendbytes_2[1]
 227  0057  0083        	mov mp,a
 227  0058  0F01        	mov a,high offset _gv8u_iicmaster_txdata
 227  0059  1F01        	clr sbp
 227  005A  1381        	adcm a,sbp
 227  005B  2000     E  	call _Crom2Prom
 227  005C  0080     E  	mov ra,a
 227  005D  0700     E  	mov a,ra
 227  005E  2000     R  	call _fun_iicmaster_bytewrite
 228  005F              #line 228 "C:\Users\JunZh\Desktop\Projects\2017_ 空气盒\开发环境和硬件验证代码\BS82C16A_示例程序\BS82C16A_20150807_LIBV413--V3\20150807_LIBV413\USER_PROGRAM\iic_master.c"
 228  005F  2000     R  	call _fun_iicmaster_rxak
 228  0060  0080     E  	mov ra,a
 228  0061  1080     E  	sz ra
 228  0062  2800     R  	jmp _LI3
 228  0063  2800     R  	jmp _L46
 228  0064              _LI3:
 231  0064              #line 231 "C:\Users\JunZh\Desktop\Projects\2017_ 空气盒\开发环境和硬件验证代码\BS82C16A_示例程序\BS82C16A_20150807_LIBV413--V3\20150807_LIBV413\USER_PROGRAM\iic_master.c"
 231  0064  2000     R  	call _IIC_DELAY
 232  0065              #line 232 "C:\Users\JunZh\Desktop\Projects\2017_ 空气盒\开发环境和硬件验证代码\BS82C16A_示例程序\BS82C16A_20150807_LIBV413--V3\20150807_LIBV413\USER_PROGRAM\iic_master.c"
 232  0065              ;# 232 "C:\Users\JunZh\Desktop\Projects\2017_ 空气盒\开发环境和硬件验证代码\BS82C16A_示例程序\BS82C16A_20150807_LIBV413--V3\20150807_LIBV413\USER_PROGRAM\iic_master.c" 1
 232  0065  0001        	clr wdt
 224  0066              #line 224 "C:\Users\JunZh\Desktop\Projects\2017_ 空气盒\开发环境和硬件验证代码\BS82C16A_示例程序\BS82C16A_20150807_LIBV413--V3\20150807_LIBV413\USER_PROGRAM\iic_master.c"
 224  0066  1480     R  	inc _fun_iicmaster_sendbytes_2[1]
 224  0067  2800     R  	jmp _L47
文件：iic_master.c 编译器版本 HGASM 0202 页次10

 224  0068              _L46:
 236  0068              #line 236 "C:\Users\JunZh\Desktop\Projects\2017_ 空气盒\开发环境和硬件验证代码\BS82C16A_示例程序\BS82C16A_20150807_LIBV413--V3\20150807_LIBV413\USER_PROGRAM\iic_master.c"
 236  0068              ;# 236 "C:\Users\JunZh\Desktop\Projects\2017_ 空气盒\开发环境和硬件验证代码\BS82C16A_示例程序\BS82C16A_20150807_LIBV413--V3\20150807_LIBV413\USER_PROGRAM\iic_master.c" 1
 236  0068  0001        	clr wdt
 236  0069              _L45:
 242  0069              #line 242 "C:\Users\JunZh\Desktop\Projects\2017_ 空气盒\开发环境和硬件验证代码\BS82C16A_示例程序\BS82C16A_20150807_LIBV413--V3\20150807_LIBV413\USER_PROGRAM\iic_master.c"
 242  0069  2000     R  	call _fun_iicmaster_stop
 242  006A  0003        	ret
 242  006B              _fun_iicmaster_sendbytes endp
 242  006B              #line 242 "C:\Users\JunZh\Desktop\Projects\2017_ 空气盒\开发环境和硬件验证代码\BS82C16A_示例程序\BS82C16A_20150807_LIBV413--V3\20150807_LIBV413\USER_PROGRAM\iic_master.c"
 242  006B              #pragma debug scope 1 1
 242  006B              _gv8u_iicmaster_rxdata equ [448]
 242  006B              public _fun_iicmaster_recbytes
 242  006B              #pragma debug scope 11 1
 249  006B              #line 249 "C:\Users\JunZh\Desktop\Projects\2017_ 空气盒\开发环境和硬件验证代码\BS82C16A_示例程序\BS82C16A_20150807_LIBV413--V3\20150807_LIBV413\USER_PROGRAM\iic_master.c"
 249  0000              _fun_iicmaster_recbytes .section 'code'
 249  0000              _fun_iicmaster_recbytes proc
 249  0000  0004[           local _fun_iicmaster_recbytes_2 db 4 dup(?)	; 0,4
            00
            ]
 249  0000  0080     R  	mov _fun_iicmaster_recbytes_2[0],a
 249  0001              #pragma debug variable 8 11 _fun_iicmaster_recbytes_2+0 "lv8u_reclen"
 249  0001              #pragma debug variable 8 11 _fun_iicmaster_recbytes_2+1 "i"
 253  0001              #line 253 "C:\Users\JunZh\Desktop\Projects\2017_ 空气盒\开发环境和硬件验证代码\BS82C16A_示例程序\BS82C16A_20150807_LIBV413--V3\20150807_LIBV413\USER_PROGRAM\iic_master.c"
 253  0001  2000     R  	call _fun_iicmaster_start
 254  0002              #line 254 "C:\Users\JunZh\Desktop\Projects\2017_ 空气盒\开发环境和硬件验证代码\BS82C16A_示例程序\BS82C16A_20150807_LIBV413--V3\20150807_LIBV413\USER_PROGRAM\iic_master.c"
 254  0002  0F55        	mov a,85
 254  0003  2000     R  	call _fun_iicmaster_bytewrite
 255  0004              #line 255 "C:\Users\JunZh\Desktop\Projects\2017_ 空气盒\开发环境和硬件验证代码\BS82C16A_示例程序\BS82C16A_20150807_LIBV413--V3\20150807_LIBV413\USER_PROGRAM\iic_master.c"
 255  0004  2000     R  	call _fun_iicmaster_rxak
 255  0005  0080     E  	mov ra,a
 255  0006  1080     E  	sz ra
 255  0007  2800     R  	jmp _LI4
 255  0008  2800     R  	jmp _L51
 255  0009              _LI4:
 255  0009              #line 255 "C:\Users\JunZh\Desktop\Projects\2017_ 空气盒\开发环境和硬件验证代码\BS82C16A_示例程序\BS82C16A_20150807_LIBV413--V3\20150807_LIBV413\USER_PROGRAM\iic_master.c"
 255  0009  1F00     R  	clr _fun_iicmaster_recbytes_2[1]
 255  000A              _L52:
 257  000A              #line 257 "C:\Users\JunZh\Desktop\Projects\2017_ 空气盒\开发环境和硬件验证代码\BS82C16A_示例程序\BS82C16A_20150807_LIBV413--V3\20150807_LIBV413\USER_PROGRAM\iic_master.c"
 257  000A  0700     R  	mov a,_fun_iicmaster_recbytes_2[1]
 257  000B  0080     R  	mov _fun_iicmaster_recbytes_2[2],a
 257  000C  1F00     R  	clr _fun_iicmaster_recbytes_2[3]
 257  000D  0FFF        	mov a,255
 257  000E  0300     R  	add a,_fun_iicmaster_recbytes_2[0]
 257  000F  0080     E  	mov rb,a
 257  0010  0FFF        	mov a,255
 257  0011  1F00     E  	clr rc
 257  0012  1380     E  	adcm a,rc
 257  0013  0700     R  	mov a,_fun_iicmaster_recbytes_2[2]
 257  0014  0200     E  	sub a,rb
 257  0015  0700     R  	mov a,_fun_iicmaster_recbytes_2[3]
 257  0016  1200     E  	sbc a,rc
 257  0017  1185        	swap acc
 257  0018  040A        	xor a,status
 257  0019  3985        	snz acc.3
 257  001A  2800     R  	jmp _L57
 260  001B              #line 260 "C:\Users\JunZh\Desktop\Projects\2017_ 空气盒\开发环境和硬件验证代码\BS82C16A_示例程序\BS82C16A_20150807_LIBV413--V3\20150807_LIBV413\USER_PROGRAM\iic_master.c"
 260  001B  2000     R  	call _fun_iicmaster_byteread
 260  001C  0080     E  	mov ra,a
 260  001D  0FC0        	mov a,low offset _gv8u_iicmaster_rxdata
文件：iic_master.c 编译器版本 HGASM 0202 页次11

 260  001E  0300     R  	add a,_fun_iicmaster_recbytes_2[2]
 260  001F  0083        	mov mp,a
 260  0020  0F01        	mov a,high offset _gv8u_iicmaster_rxdata
 260  0021  1300     R  	adc a,_fun_iicmaster_recbytes_2[3]
 260  0022  0081        	mov sbp,a
 260  0023  0701        	mov a,sbp
 260  0024  0084        	mov bp,a
 260  0025  0700     E  	mov a,ra
 260  0026  0082        	mov ir,a
 261  0027              #line 261 "C:\Users\JunZh\Desktop\Projects\2017_ 空气盒\开发环境和硬件验证代码\BS82C16A_示例程序\BS82C16A_20150807_LIBV413--V3\20150807_LIBV413\USER_PROGRAM\iic_master.c"
 261  0027  2000     R  	call _fun_iicmaster_txak
 262  0028              #line 262 "C:\Users\JunZh\Desktop\Projects\2017_ 空气盒\开发环境和硬件验证代码\BS82C16A_示例程序\BS82C16A_20150807_LIBV413--V3\20150807_LIBV413\USER_PROGRAM\iic_master.c"
 262  0028  2000     R  	call _IIC_DELAY
 257  0029              #line 257 "C:\Users\JunZh\Desktop\Projects\2017_ 空气盒\开发环境和硬件验证代码\BS82C16A_示例程序\BS82C16A_20150807_LIBV413--V3\20150807_LIBV413\USER_PROGRAM\iic_master.c"
 257  0029  1480     R  	inc _fun_iicmaster_recbytes_2[1]
 257  002A  2800     R  	jmp _L52
 257  002B              _L57:
 265  002B              #line 265 "C:\Users\JunZh\Desktop\Projects\2017_ 空气盒\开发环境和硬件验证代码\BS82C16A_示例程序\BS82C16A_20150807_LIBV413--V3\20150807_LIBV413\USER_PROGRAM\iic_master.c"
 265  002B  2000     R  	call _fun_iicmaster_byteread
 265  002C  0080     E  	mov ra,a
 265  002D  0FC0        	mov a,low offset _gv8u_iicmaster_rxdata
 265  002E  0300     R  	add a,_fun_iicmaster_recbytes_2[2]
 265  002F  0083        	mov mp,a
 265  0030  0F01        	mov a,high offset _gv8u_iicmaster_rxdata
 265  0031  1300     R  	adc a,_fun_iicmaster_recbytes_2[3]
 265  0032  0081        	mov sbp,a
 265  0033  0701        	mov a,sbp
 265  0034  0084        	mov bp,a
 265  0035  0700     E  	mov a,ra
 265  0036  0082        	mov ir,a
 266  0037              #line 266 "C:\Users\JunZh\Desktop\Projects\2017_ 空气盒\开发环境和硬件验证代码\BS82C16A_示例程序\BS82C16A_20150807_LIBV413--V3\20150807_LIBV413\USER_PROGRAM\iic_master.c"
 266  0037  2000     R  	call _fun_iicmaster_txnoak
 266  0038              _L51:
 268  0038              #line 268 "C:\Users\JunZh\Desktop\Projects\2017_ 空气盒\开发环境和硬件验证代码\BS82C16A_示例程序\BS82C16A_20150807_LIBV413--V3\20150807_LIBV413\USER_PROGRAM\iic_master.c"
 268  0038  2000     R  	call _fun_iicmaster_stop
 268  0039  0003        	ret
 268  003A              _fun_iicmaster_recbytes endp
 268  003A              #line 268 "C:\Users\JunZh\Desktop\Projects\2017_ 空气盒\开发环境和硬件验证代码\BS82C16A_示例程序\BS82C16A_20150807_LIBV413--V3\20150807_LIBV413\USER_PROGRAM\iic_master.c"
 268  003A              #pragma debug scope 1 1
  11  003A              #line 11 "C:\Users\JunZh\Desktop\Projects\2017_ 空气盒\开发环境和硬件验证代码\BS82C16A_示例程序\BS82C16A_20150807_LIBV413--V3\20150807_LIBV413\USER_PROGRAM\iic_master.c"
  11  003A              public _ac_ad_cnt
  11  0000              @HCCINIT0 .section 'data'
  11  0000              _ac_ad_cnt	db 0
  11  0001              #pragma debug variable 8 1 _ac_ad_cnt "ac_ad_cnt"
  11  0001              
  11  0000              @HCCINIT .section 'data'
  11  0000              #pragma debug struct_end
  11  0000              #pragma debug struct_end
  11  0000              #pragma debug union_end
  11  0000              #pragma debug union_end
  11  0000              #pragma debug variable 43 1 ___pc "__pc" 1
  11  0000              #pragma debug struct_end
  11  0000              #pragma debug struct_end
  11  0000              #pragma debug union_end
  11  0000              #pragma debug union_end
  11  0000              #pragma debug variable 45 1 ___pcc "__pcc" 1
  11  0000              #pragma debug array 46 8 10 1
  11  0000              #pragma debug array 46 8 10 1
  11  0000              #pragma debug variable 46 1 _gv8u_iicmaster_txdata "gv8u_iicmaster_txdata" 10
  11  0000              #pragma debug variable 46 1 _gv8u_iicmaster_rxdata "gv8u_iicmaster_rxdata" 10
文件：iic_master.c 编译器版本 HGASM 0202 页次12

  11  0000              
  11  0000              ; 
  11  0000              ; Generated by holtek-gcc v3.14, Sat Feb 25 11:18:42 2017
  11  0000              ; Rebuild 10
  11  0000              ; end of file


        0 Errors, 0