文件：USER_PROGRAM.C 编译器版本 HGASM 0202 页次1


   1  0000              ; Generated by holtek-gcc v3.14, Sat Feb 25 11:18:42 2017
   2  0000              ; 
   3  0000              ; Configuration:
   4  0000              ;       without long instruction
   5  0000              ;       Single ROM, Multi-RAM
   6  0000              ;       bits_per_rom_unit:16
   7  0000              ;       with mp1
   8  0000              ;       with tbhp, address(0x9)
   9  0000              ;          Use tabrd-const
  10  0000              ;       
  11  0000              ;       
  12  0000              ;       
  13  0000              ; use 'tabrdc' instead of 'tabrd'
  14  0000              ;       
  15  0000              
  16  0000              #pragma translator "holtek-gcc 4.6.4" "3.14" "build 20130711"
  17  0000              ; Rebuild 10
  18  0000              
  19  0000              ir equ [2]
  20  0000              mp equ [3]
  21  0000              sbp equ [1]
  22  0000              acc equ [5]
  23  0000              bp equ [4]
  24  0000              tblp equ [7]
  25  0000              tbhp equ [9]
  26  0000              status equ [10]
  27  0000              c equ [10].0
  28  0000              ac equ [10].1
  29  0000              z equ [10].2
  30  0000              ov equ [10].3
  31  0000              intc equ [11]
  32  0000              
  33  0000              extern ra:byte
  34  0000              extern rb:byte
  35  0000              extern rc:byte
  36  0000              extern rd:byte
  37  0000              extern re:byte
  38  0000              extern rf:byte
  39  0000              extern rg:byte
  40  0000              extern rh:byte
  41  0000              extern _Crom2Prom:near
  42  0000              extern _Crom2PromNext:near
  43  0000              
  44  0000              RAMBANK 0 @HCCINIT, @HCCINIT0
  45  0000              
  46  0000              RAMBANK 0 @BITDATASEC, @BITDATASEC1
  47  0000              @HCCINIT	.section 'data'
  48  0000              @HCCINIT0	.section 'data'
  49  0000              @BITDATASEC	 .section 'data'
  50  0000              @BITDATASEC1	 .section 'data'
  51  0000              
  52  0000              #pragma debug scope 1 1
  53  0000              	extern __DELAY3:near
  54  0000              	extern __DELAYX3:near
  55  0000              	extern __DELAYX6:near
  56  0000              	extern __DELAYY5:near
  57  0000              	extern __DELAYY3:near
  58  0000              	extern _builtin_holtek_delay_2:byte
  59  0000              ___pa equ [20]
文件：USER_PROGRAM.ASM 编译器版本 HGASM 0202 页次2

  60  0000              ___pb equ [32]
  61  0000              ___slcdc0 equ [51]
  62  0000              public _Interrupt_CTM0A
  63  0000              #pragma debug scope 2 1

  36  0000              #line 36 "C:\Users\JunZh\Desktop\Projects\2017_ 空气盒\开发环境和硬件验证代码\BS82C16A_示例程序\BS82C16A_20150807_LIBV413--V3\20150807_LIBV413\USER_PROGRAM\USER_PROGRAM.C"
  36  0000              @Interrupt_CTM0A_code .section at 20 'code'
  36  0000  0080     E  	mov r1,a
  36  0001  0704        	mov a,bp
  36  0002  0080     E  	mov r2,a
  36  0003  2800     R  	jmp _Interrupt_CTM0A
  36  0004              #pragma debug scope 1 1
  36  0004              @dummy20 endp
  36  0004              #pragma debug scope 3 1
  36  0000              _Interrupt_CTM0A .section 'code'
  36  0000              _Interrupt_CTM0A proc
  36  0000  00          local _Interrupt_CTM0A_2 db 1 dup(?)
  36  0000  070A        	mov a,status
  36  0001  0080     E  	mov r3,a
  36  0002  0703        	mov a,mp
  36  0003  0080     E  	mov r4,a
  36  0004  0701        	mov a,sbp
  36  0005  0080     E  	mov r5,a
  36  0006  0707        	mov a,tblp
  36  0007  0080     E  	mov r6,a
  36  0008  0709        	mov a,tbhp
  36  0009  0080     E  	mov r7,a
  37  000A              #line 37 "C:\Users\JunZh\Desktop\Projects\2017_ 空气盒\开发环境和硬件验证代码\BS82C16A_示例程序\BS82C16A_20150807_LIBV413--V3\20150807_LIBV413\USER_PROGRAM\USER_PROGRAM.C"
  37  000A  0F03        	mov a,3
  37  000B  0200     R  	sub a,_rx_time_cnt[0]
  37  000C  380A        	snz c
  37  000D  2800     R  	jmp _L2
  39  000E              #line 39 "C:\Users\JunZh\Desktop\Projects\2017_ 空气盒\开发环境和硬件验证代码\BS82C16A_示例程序\BS82C16A_20150807_LIBV413--V3\20150807_LIBV413\USER_PROGRAM\USER_PROGRAM.C"
  39  000E  1480     R  	inc _rx_time_cnt[0]
  39  000F  2800     R  	jmp _L3
  39  0010              _L2:
  43  0010              #line 43 "C:\Users\JunZh\Desktop\Projects\2017_ 空气盒\开发环境和硬件验证代码\BS82C16A_示例程序\BS82C16A_20150807_LIBV413--V3\20150807_LIBV413\USER_PROGRAM\USER_PROGRAM.C"
  43  0010  3000     R  	set _gv8u_flag1[0].1
  43  0011              _L3:
  45  0011              #line 45 "C:\Users\JunZh\Desktop\Projects\2017_ 空气盒\开发环境和硬件验证代码\BS82C16A_示例程序\BS82C16A_20150807_LIBV413--V3\20150807_LIBV413\USER_PROGRAM\USER_PROGRAM.C"
  45  0011  3514        	clr [20].2
  46  0012              #line 46 "C:\Users\JunZh\Desktop\Projects\2017_ 空气盒\开发环境和硬件验证代码\BS82C16A_示例程序\BS82C16A_20150807_LIBV413--V3\20150807_LIBV413\USER_PROGRAM\USER_PROGRAM.C"
  46  0012  3414        	clr [20].0
  47  0013              #line 47 "C:\Users\JunZh\Desktop\Projects\2017_ 空气盒\开发环境和硬件验证代码\BS82C16A_示例程序\BS82C16A_20150807_LIBV413--V3\20150807_LIBV413\USER_PROGRAM\USER_PROGRAM.C"
  47  0013  3614        	clr [20].4
  48  0014              #line 48 "C:\Users\JunZh\Desktop\Projects\2017_ 空气盒\开发环境和硬件验证代码\BS82C16A_示例程序\BS82C16A_20150807_LIBV413--V3\20150807_LIBV413\USER_PROGRAM\USER_PROGRAM.C"
  48  0014  3494        	clr [20].1
  49  0015              #line 49 "C:\Users\JunZh\Desktop\Projects\2017_ 空气盒\开发环境和硬件验证代码\BS82C16A_示例程序\BS82C16A_20150807_LIBV413--V3\20150807_LIBV413\USER_PROGRAM\USER_PROGRAM.C"
  49  0015  3420        	clr [32].0
  50  0016              #line 50 "C:\Users\JunZh\Desktop\Projects\2017_ 空气盒\开发环境和硬件验证代码\BS82C16A_示例程序\BS82C16A_20150807_LIBV413--V3\20150807_LIBV413\USER_PROGRAM\USER_PROGRAM.C"
  50  0016  34A0        	clr [32].1
  51  0017              #line 51 "C:\Users\JunZh\Desktop\Projects\2017_ 空气盒\开发环境和硬件验证代码\BS82C16A_示例程序\BS82C16A_20150807_LIBV413--V3\20150807_LIBV413\USER_PROGRAM\USER_PROGRAM.C"
  51  0017  3520        	clr [32].2
  52  0018              #line 52 "C:\Users\JunZh\Desktop\Projects\2017_ 空气盒\开发环境和硬件验证代码\BS82C16A_示例程序\BS82C16A_20150807_LIBV413--V3\20150807_LIBV413\USER_PROGRAM\USER_PROGRAM.C"
  52  0018  35A0        	clr [32].3
  53  0019              #line 53 "C:\Users\JunZh\Desktop\Projects\2017_ 空气盒\开发环境和硬件验证代码\BS82C16A_示例程序\BS82C16A_20150807_LIBV413--V3\20150807_LIBV413\USER_PROGRAM\USER_PROGRAM.C"
  53  0019  3620        	clr [32].4
  54  001A              #line 54 "C:\Users\JunZh\Desktop\Projects\2017_ 空气盒\开发环境和硬件验证代码\BS82C16A_示例程序\BS82C16A_20150807_LIBV413--V3\20150807_LIBV413\USER_PROGRAM\USER_PROGRAM.C"
  54  001A  36A0        	clr [32].5
  55  001B              #line 55 "C:\Users\JunZh\Desktop\Projects\2017_ 空气盒\开发环境和硬件验证代码\BS82C16A_示例程序\BS82C16A_20150807_LIBV413--V3\20150807_LIBV413\USER_PROGRAM\USER_PROGRAM.C"
文件：USER_PROGRAM.C 编译器版本 HGASM 0202 页次3

  55  001B  0700     R  	mov a,_com_status[0]
  55  001C  0080     R  	mov _Interrupt_CTM0A_2[0],a
  55  001D  0700     R  	mov a,_Interrupt_CTM0A_2[0]
  55  001E  0A00        	sub a,0
  55  001F  3D0A        	sz z
  55  0020  2800     R  	jmp _L5
  55  0021  0A01        	sub a,(1)-(0)
  55  0022  3D0A        	sz z
  55  0023  2800     R  	jmp _L6
  55  0024  0700     R  	mov a,_Interrupt_CTM0A_2[0]
  55  0025  0A02        	sub a,2
  55  0026  3D0A        	sz z
  55  0027  2800     R  	jmp _L7
  55  0028  0700     R  	mov a,_Interrupt_CTM0A_2[0]
  55  0029  0A03        	sub a,3
  55  002A  390A        	snz z
  55  002B  2800     R  	jmp _L4
  77  002C              #line 77 "C:\Users\JunZh\Desktop\Projects\2017_ 空气盒\开发环境和硬件验证代码\BS82C16A_示例程序\BS82C16A_20150807_LIBV413--V3\20150807_LIBV413\USER_PROGRAM\USER_PROGRAM.C"
  77  002C  0F00     R  	mov a,low offset _dis_data
  77  002D  0300     R  	add a,_com_status[0]
  77  002E  0083        	mov mp,a
  77  002F  0F00     R  	mov a,high offset _dis_data
  77  0030  1F01        	clr sbp
  77  0031  1381        	adcm a,sbp
  77  0032  2000     E  	call _Crom2Prom
  77  0033  0080     R  	mov _data_buffer[0],a
  78  0034              #line 78 "C:\Users\JunZh\Desktop\Projects\2017_ 空气盒\开发环境和硬件验证代码\BS82C16A_示例程序\BS82C16A_20150807_LIBV413--V3\20150807_LIBV413\USER_PROGRAM\USER_PROGRAM.C"
  78  0034  3114        	set [20].2
  79  0035              #line 79 "C:\Users\JunZh\Desktop\Projects\2017_ 空气盒\开发环境和硬件验证代码\BS82C16A_示例程序\BS82C16A_20150807_LIBV413--V3\20150807_LIBV413\USER_PROGRAM\USER_PROGRAM.C"
  79  0035  1833        	rla [51]
  79  0036  0E01        	and a,1
  79  0037  0080     E  	mov ra,a
  79  0038  0F01        	mov a,1
  79  0039  0480     E  	xorm a,ra
  79  003A  1B80     E  	rrc ra
  79  003B  1F00     E  	clr ra
  79  003C  1B80     E  	rrc ra
  79  003D  37B3        	clr [51].7
  79  003E  0700     E  	mov a,ra
  79  003F  05B3        	orm a,[51]
  80  0040              #line 80 "C:\Users\JunZh\Desktop\Projects\2017_ 空气盒\开发环境和硬件验证代码\BS82C16A_示例程序\BS82C16A_20150807_LIBV413--V3\20150807_LIBV413\USER_PROGRAM\USER_PROGRAM.C"
  80  0040  2800     R  	jmp _L4
  80  0041              _L5:
  59  0041              #line 59 "C:\Users\JunZh\Desktop\Projects\2017_ 空气盒\开发环境和硬件验证代码\BS82C16A_示例程序\BS82C16A_20150807_LIBV413--V3\20150807_LIBV413\USER_PROGRAM\USER_PROGRAM.C"
  59  0041  0F00     R  	mov a,low offset _dis_data
  59  0042  0300     R  	add a,_com_status[0]
  59  0043  0083        	mov mp,a
  59  0044  0F00     R  	mov a,high offset _dis_data
  59  0045  1F01        	clr sbp
  59  0046  1381        	adcm a,sbp
  59  0047  2000     E  	call _Crom2Prom
  59  0048  0080     R  	mov _data_buffer[0],a
  60  0049              #line 60 "C:\Users\JunZh\Desktop\Projects\2017_ 空气盒\开发环境和硬件验证代码\BS82C16A_示例程序\BS82C16A_20150807_LIBV413--V3\20150807_LIBV413\USER_PROGRAM\USER_PROGRAM.C"
  60  0049  3094        	set [20].1
  61  004A              #line 61 "C:\Users\JunZh\Desktop\Projects\2017_ 空气盒\开发环境和硬件验证代码\BS82C16A_示例程序\BS82C16A_20150807_LIBV413--V3\20150807_LIBV413\USER_PROGRAM\USER_PROGRAM.C"
  61  004A  2800     R  	jmp _L4
  61  004B              _L6:
  65  004B              #line 65 "C:\Users\JunZh\Desktop\Projects\2017_ 空气盒\开发环境和硬件验证代码\BS82C16A_示例程序\BS82C16A_20150807_LIBV413--V3\20150807_LIBV413\USER_PROGRAM\USER_PROGRAM.C"
  65  004B  0F00     R  	mov a,low offset _dis_data
  65  004C  0300     R  	add a,_com_status[0]
文件：USER_PROGRAM.C 编译器版本 HGASM 0202 页次4

  65  004D  0083        	mov mp,a
  65  004E  0F00     R  	mov a,high offset _dis_data
  65  004F  1F01        	clr sbp
  65  0050  1381        	adcm a,sbp
  65  0051  2000     E  	call _Crom2Prom
  65  0052  0080     R  	mov _data_buffer[0],a
  66  0053              #line 66 "C:\Users\JunZh\Desktop\Projects\2017_ 空气盒\开发环境和硬件验证代码\BS82C16A_示例程序\BS82C16A_20150807_LIBV413--V3\20150807_LIBV413\USER_PROGRAM\USER_PROGRAM.C"
  66  0053  3214        	set [20].4
  67  0054              #line 67 "C:\Users\JunZh\Desktop\Projects\2017_ 空气盒\开发环境和硬件验证代码\BS82C16A_示例程序\BS82C16A_20150807_LIBV413--V3\20150807_LIBV413\USER_PROGRAM\USER_PROGRAM.C"
  67  0054  2800     R  	jmp _L4
  67  0055              _L7:
  71  0055              #line 71 "C:\Users\JunZh\Desktop\Projects\2017_ 空气盒\开发环境和硬件验证代码\BS82C16A_示例程序\BS82C16A_20150807_LIBV413--V3\20150807_LIBV413\USER_PROGRAM\USER_PROGRAM.C"
  71  0055  0F00     R  	mov a,low offset _dis_data
  71  0056  0300     R  	add a,_com_status[0]
  71  0057  0083        	mov mp,a
  71  0058  0F00     R  	mov a,high offset _dis_data
  71  0059  1F01        	clr sbp
  71  005A  1381        	adcm a,sbp
  71  005B  2000     E  	call _Crom2Prom
  71  005C  0080     R  	mov _data_buffer[0],a
  72  005D              #line 72 "C:\Users\JunZh\Desktop\Projects\2017_ 空气盒\开发环境和硬件验证代码\BS82C16A_示例程序\BS82C16A_20150807_LIBV413--V3\20150807_LIBV413\USER_PROGRAM\USER_PROGRAM.C"
  72  005D  3014        	set [20].0
  72  005E              _L4:
  83  005E              #line 83 "C:\Users\JunZh\Desktop\Projects\2017_ 空气盒\开发环境和硬件验证代码\BS82C16A_示例程序\BS82C16A_20150807_LIBV413--V3\20150807_LIBV413\USER_PROGRAM\USER_PROGRAM.C"
  83  005E  3800     R  	snz _data_buffer[0].0
  83  005F  2800     R  	jmp _L9
  85  0060              #line 85 "C:\Users\JunZh\Desktop\Projects\2017_ 空气盒\开发环境和硬件验证代码\BS82C16A_示例程序\BS82C16A_20150807_LIBV413--V3\20150807_LIBV413\USER_PROGRAM\USER_PROGRAM.C"
  85  0060  3020        	set [32].0
  85  0061              _L9:
  87  0061              #line 87 "C:\Users\JunZh\Desktop\Projects\2017_ 空气盒\开发环境和硬件验证代码\BS82C16A_示例程序\BS82C16A_20150807_LIBV413--V3\20150807_LIBV413\USER_PROGRAM\USER_PROGRAM.C"
  87  0061  3800     R  	snz _data_buffer[0].1
  87  0062  2800     R  	jmp _L10
  89  0063              #line 89 "C:\Users\JunZh\Desktop\Projects\2017_ 空气盒\开发环境和硬件验证代码\BS82C16A_示例程序\BS82C16A_20150807_LIBV413--V3\20150807_LIBV413\USER_PROGRAM\USER_PROGRAM.C"
  89  0063  30A0        	set [32].1
  89  0064              _L10:
  91  0064              #line 91 "C:\Users\JunZh\Desktop\Projects\2017_ 空气盒\开发环境和硬件验证代码\BS82C16A_示例程序\BS82C16A_20150807_LIBV413--V3\20150807_LIBV413\USER_PROGRAM\USER_PROGRAM.C"
  91  0064  3800     R  	snz _data_buffer[0].2
  91  0065  2800     R  	jmp _L11
  93  0066              #line 93 "C:\Users\JunZh\Desktop\Projects\2017_ 空气盒\开发环境和硬件验证代码\BS82C16A_示例程序\BS82C16A_20150807_LIBV413--V3\20150807_LIBV413\USER_PROGRAM\USER_PROGRAM.C"
  93  0066  3120        	set [32].2
  93  0067              _L11:
  95  0067              #line 95 "C:\Users\JunZh\Desktop\Projects\2017_ 空气盒\开发环境和硬件验证代码\BS82C16A_示例程序\BS82C16A_20150807_LIBV413--V3\20150807_LIBV413\USER_PROGRAM\USER_PROGRAM.C"
  95  0067  3800     R  	snz _data_buffer[0].3
  95  0068  2800     R  	jmp _L12
  97  0069              #line 97 "C:\Users\JunZh\Desktop\Projects\2017_ 空气盒\开发环境和硬件验证代码\BS82C16A_示例程序\BS82C16A_20150807_LIBV413--V3\20150807_LIBV413\USER_PROGRAM\USER_PROGRAM.C"
  97  0069  31A0        	set [32].3
  97  006A              _L12:
  99  006A              #line 99 "C:\Users\JunZh\Desktop\Projects\2017_ 空气盒\开发环境和硬件验证代码\BS82C16A_示例程序\BS82C16A_20150807_LIBV413--V3\20150807_LIBV413\USER_PROGRAM\USER_PROGRAM.C"
  99  006A  3800     R  	snz _data_buffer[0].4
  99  006B  2800     R  	jmp _L13
 101  006C              #line 101 "C:\Users\JunZh\Desktop\Projects\2017_ 空气盒\开发环境和硬件验证代码\BS82C16A_示例程序\BS82C16A_20150807_LIBV413--V3\20150807_LIBV413\USER_PROGRAM\USER_PROGRAM.C"
 101  006C  3220        	set [32].4
 101  006D              _L13:
 103  006D              #line 103 "C:\Users\JunZh\Desktop\Projects\2017_ 空气盒\开发环境和硬件验证代码\BS82C16A_示例程序\BS82C16A_20150807_LIBV413--V3\20150807_LIBV413\USER_PROGRAM\USER_PROGRAM.C"
 103  006D  3800     R  	snz _data_buffer[0].5
 103  006E  2800     R  	jmp _L14
 105  006F              #line 105 "C:\Users\JunZh\Desktop\Projects\2017_ 空气盒\开发环境和硬件验证代码\BS82C16A_示例程序\BS82C16A_20150807_LIBV413--V3\20150807_LIBV413\USER_PROGRAM\USER_PROGRAM.C"
 105  006F  32A0        	set [32].5
 105  0070              _L14:
 107  0070              #line 107 "C:\Users\JunZh\Desktop\Projects\2017_ 空气盒\开发环境和硬件验证代码\BS82C16A_示例程序\BS82C16A_20150807_LIBV413--V3\20150807_LIBV413\USER_PROGRAM\USER_PROGRAM.C"
文件：USER_PROGRAM.C 编译器版本 HGASM 0202 页次5

 107  0070  1480     R  	inc _com_status[0]
 108  0071              #line 108 "C:\Users\JunZh\Desktop\Projects\2017_ 空气盒\开发环境和硬件验证代码\BS82C16A_示例程序\BS82C16A_20150807_LIBV413--V3\20150807_LIBV413\USER_PROGRAM\USER_PROGRAM.C"
 108  0071  0F03        	mov a,3
 108  0072  0200     R  	sub a,_com_status[0]
 108  0073  3C0A        	sz c
 108  0074  2800     R  	jmp _L1
 110  0075              #line 110 "C:\Users\JunZh\Desktop\Projects\2017_ 空气盒\开发环境和硬件验证代码\BS82C16A_示例程序\BS82C16A_20150807_LIBV413--V3\20150807_LIBV413\USER_PROGRAM\USER_PROGRAM.C"
 110  0075  1F00     R  	clr _com_status[0]
 110  0076              _L1:
 110  0076  0700     E  	mov a,r2
 110  0077  0084        	mov bp,a
 110  0078  0700     E  	mov a,r3
 110  0079  008A        	mov status,a
 110  007A  0700     E  	mov a,r4
 110  007B  0083        	mov mp,a
 110  007C  0700     E  	mov a,r5
 110  007D  0081        	mov sbp,a
 110  007E  0700     E  	mov a,r6
 110  007F  0087        	mov tblp,a
 110  0080  0700     E  	mov a,r7
 110  0081  0089        	mov tbhp,a
 110  0082  1D05        	tabrdc acc
 110  0083  0700     E  	mov a,r1
 110  0084  0004        	reti
 110  0085              _Interrupt_CTM0A endp
 110  0085              
 110  0085              #line 110 "C:\Users\JunZh\Desktop\Projects\2017_ 空气盒\开发环境和硬件验证代码\BS82C16A_示例程序\BS82C16A_20150807_LIBV413--V3\20150807_LIBV413\USER_PROGRAM\USER_PROGRAM.C"
 110  0085              #pragma debug scope 1 1
 110  0085              ___usr equ [40]
 110  0085              ___txr_rxr equ [44]
 110  0085              ___acc equ [5]
 110  0085              public _Interrupt_Uart
 110  0085              #pragma debug scope 4 1
 116  0085              #line 116 "C:\Users\JunZh\Desktop\Projects\2017_ 空气盒\开发环境和硬件验证代码\BS82C16A_示例程序\BS82C16A_20150807_LIBV413--V3\20150807_LIBV413\USER_PROGRAM\USER_PROGRAM.C"
 116  0000              @Interrupt_Uart_code .section at 44 'code'
 116  0000  0080     E  	mov r1,a
 116  0001  0704        	mov a,bp
 116  0002  0080     E  	mov r2,a
 116  0003  2800     R  	jmp _Interrupt_Uart
 116  0004              #pragma debug scope 1 1
 116  0004              @dummy44 endp
 116  0004              #pragma debug scope 5 1
 116  0000              _Interrupt_Uart .section 'code'
 116  0000              _Interrupt_Uart proc
 116  0000  070A        	mov a,status
 116  0001  0080     E  	mov r3,a
 116  0002  0703        	mov a,mp
 116  0003  0080     E  	mov r4,a
 116  0004  0701        	mov a,sbp
 116  0005  0080     E  	mov r5,a
 117  0006              #line 117 "C:\Users\JunZh\Desktop\Projects\2017_ 空气盒\开发环境和硬件验证代码\BS82C16A_示例程序\BS82C16A_20150807_LIBV413--V3\20150807_LIBV413\USER_PROGRAM\USER_PROGRAM.C"
 117  0006  3928        	snz [40].2
 117  0007  2800     R  	jmp _L37
 117  0008              #line 117 "C:\Users\JunZh\Desktop\Projects\2017_ 空气盒\开发环境和硬件验证代码\BS82C16A_示例程序\BS82C16A_20150807_LIBV413--V3\20150807_LIBV413\USER_PROGRAM\USER_PROGRAM.C"
 117  0008  3E28        	sz [40].4
 117  0009  2800     R  	jmp _L37
 117  000A  3EA8        	sz [40].5
 117  000B  2800     R  	jmp _L37
 117  000C  3F28        	sz [40].6
 117  000D  2800     R  	jmp _L37
文件：USER_PROGRAM.C 编译器版本 HGASM 0202 页次6

 119  000E              #line 119 "C:\Users\JunZh\Desktop\Projects\2017_ 空气盒\开发环境和硬件验证代码\BS82C16A_示例程序\BS82C16A_20150807_LIBV413--V3\20150807_LIBV413\USER_PROGRAM\USER_PROGRAM.C"
 119  000E  3800     R  	snz _gv8u_flag1[0].1
 119  000F  2800     R  	jmp _L39
 121  0010              #line 121 "C:\Users\JunZh\Desktop\Projects\2017_ 空气盒\开发环境和硬件验证代码\BS82C16A_示例程序\BS82C16A_20150807_LIBV413--V3\20150807_LIBV413\USER_PROGRAM\USER_PROGRAM.C"
 121  0010  1F00     R  	clr _rx_cnt[0]
 122  0011              #line 122 "C:\Users\JunZh\Desktop\Projects\2017_ 空气盒\开发环境和硬件验证代码\BS82C16A_示例程序\BS82C16A_20150807_LIBV413--V3\20150807_LIBV413\USER_PROGRAM\USER_PROGRAM.C"
 122  0011  3400     R  	clr _gv8u_flag1[0].1
 123  0012              #line 123 "C:\Users\JunZh\Desktop\Projects\2017_ 空气盒\开发环境和硬件验证代码\BS82C16A_示例程序\BS82C16A_20150807_LIBV413--V3\20150807_LIBV413\USER_PROGRAM\USER_PROGRAM.C"
 123  0012  1F00     R  	clr _rx_time_cnt[0]
 123  0013              _L39:
 125  0013              #line 125 "C:\Users\JunZh\Desktop\Projects\2017_ 空气盒\开发环境和硬件验证代码\BS82C16A_示例程序\BS82C16A_20150807_LIBV413--V3\20150807_LIBV413\USER_PROGRAM\USER_PROGRAM.C"
 125  0013  0F04        	mov a,4
 125  0014  0200     R  	sub a,_rx_cnt[0]
 125  0015  380A        	snz c
 125  0016  2800     R  	jmp _L37
 127  0017              #line 127 "C:\Users\JunZh\Desktop\Projects\2017_ 空气盒\开发环境和硬件验证代码\BS82C16A_示例程序\BS82C16A_20150807_LIBV413--V3\20150807_LIBV413\USER_PROGRAM\USER_PROGRAM.C"
 127  0017  0F00     R  	mov a,low offset _rx_databuf
 127  0018  0300     R  	add a,_rx_cnt[0]
 127  0019  0083        	mov mp,a
 127  001A  0F00     R  	mov a,high offset _rx_databuf
 127  001B  1F01        	clr sbp
 127  001C  1381        	adcm a,sbp
 127  001D  0701        	mov a,sbp
 127  001E  0084        	mov bp,a
 127  001F  072C        	mov a,[44]
 127  0020  0082        	mov ir,a
 128  0021              #line 128 "C:\Users\JunZh\Desktop\Projects\2017_ 空气盒\开发环境和硬件验证代码\BS82C16A_示例程序\BS82C16A_20150807_LIBV413--V3\20150807_LIBV413\USER_PROGRAM\USER_PROGRAM.C"
 128  0021  1480     R  	inc _rx_cnt[0]
 129  0022              #line 129 "C:\Users\JunZh\Desktop\Projects\2017_ 空气盒\开发环境和硬件验证代码\BS82C16A_示例程序\BS82C16A_20150807_LIBV413--V3\20150807_LIBV413\USER_PROGRAM\USER_PROGRAM.C"
 129  0022  0700     R  	mov a,_rx_cnt[0]
 129  0023  0A05        	sub a,5
 129  0024  390A        	snz z
 129  0025  2800     R  	jmp _L37
 131  0026              #line 131 "C:\Users\JunZh\Desktop\Projects\2017_ 空气盒\开发环境和硬件验证代码\BS82C16A_示例程序\BS82C16A_20150807_LIBV413--V3\20150807_LIBV413\USER_PROGRAM\USER_PROGRAM.C"
 131  0026  1F00     R  	clr _rx_cnt[0]
 131  0027              _L37:
 135  0027              #line 135 "C:\Users\JunZh\Desktop\Projects\2017_ 空气盒\开发环境和硬件验证代码\BS82C16A_示例程序\BS82C16A_20150807_LIBV413--V3\20150807_LIBV413\USER_PROGRAM\USER_PROGRAM.C"
 135  0027  0728        	mov a,[40]
 135  0028  0085        	mov [5],a
 135  0029  0700     E  	mov a,r2
 135  002A  0084        	mov bp,a
 135  002B  0700     E  	mov a,r3
 135  002C  008A        	mov status,a
 135  002D  0700     E  	mov a,r4
 135  002E  0083        	mov mp,a
 135  002F  0700     E  	mov a,r5
 135  0030  0081        	mov sbp,a
 135  0031  0700     E  	mov a,r1
 135  0032  0004        	reti
 135  0033              _Interrupt_Uart endp
 135  0033              
 135  0033              #line 135 "C:\Users\JunZh\Desktop\Projects\2017_ 空气盒\开发环境和硬件验证代码\BS82C16A_示例程序\BS82C16A_20150807_LIBV413--V3\20150807_LIBV413\USER_PROGRAM\USER_PROGRAM.C"
 135  0033              #pragma debug scope 1 1
 135  0033              ___papu equ [22]
 135  0033              ___pac equ [21]
 135  0033              ___pbpu equ [34]
 135  0033              ___pbc equ [33]
 135  0033              ___pcpu equ [59]
 135  0033              ___pc equ [57]
 135  0033              ___pcc equ [58]
文件：USER_PROGRAM.C 编译器版本 HGASM 0202 页次7

 135  0033              ___pdpu equ [67]
 135  0033              ___pd equ [65]
 135  0033              ___pdc equ [66]
 135  0033              ___ctm0c0 equ [97]
 135  0033              ___ctm0c1 equ [98]
 135  0033              ___ctm0al equ [101]
 135  0033              ___ctm0ah equ [102]
 135  0033              ___intc1 equ [15]
 135  0033              ___brg equ [43]
 135  0033              ___ucr1 equ [41]
 135  0033              ___ucr2 equ [42]
 135  0033              ___intc2 equ [16]
 135  0033              ___slcdc1 equ [52]
 135  0033              ___slcdc2 equ [53]
 135  0033              ___slcdc3 equ [54]
 135  0033              public _USER_PROGRAM_INITIAL
 135  0033              #pragma debug scope 6 1
 141  0033              #line 141 "C:\Users\JunZh\Desktop\Projects\2017_ 空气盒\开发环境和硬件验证代码\BS82C16A_示例程序\BS82C16A_20150807_LIBV413--V3\20150807_LIBV413\USER_PROGRAM\USER_PROGRAM.C"
 141  0000              _USER_PROGRAM_INITIAL .section 'code'
 141  0000              _USER_PROGRAM_INITIAL proc
 142  0000              #line 142 "C:\Users\JunZh\Desktop\Projects\2017_ 空气盒\开发环境和硬件验证代码\BS82C16A_示例程序\BS82C16A_20150807_LIBV413--V3\20150807_LIBV413\USER_PROGRAM\USER_PROGRAM.C"
 142  0000  1F16        	clr [22]
 143  0001              #line 143 "C:\Users\JunZh\Desktop\Projects\2017_ 空气盒\开发环境和硬件验证代码\BS82C16A_示例程序\BS82C16A_20150807_LIBV413--V3\20150807_LIBV413\USER_PROGRAM\USER_PROGRAM.C"
 143  0001  1F14        	clr [20]
 144  0002              #line 144 "C:\Users\JunZh\Desktop\Projects\2017_ 空气盒\开发环境和硬件验证代码\BS82C16A_示例程序\BS82C16A_20150807_LIBV413--V3\20150807_LIBV413\USER_PROGRAM\USER_PROGRAM.C"
 144  0002  0FE8        	mov a,232
 144  0003  0095        	mov [21],a
 146  0004              #line 146 "C:\Users\JunZh\Desktop\Projects\2017_ 空气盒\开发环境和硬件验证代码\BS82C16A_示例程序\BS82C16A_20150807_LIBV413--V3\20150807_LIBV413\USER_PROGRAM\USER_PROGRAM.C"
 146  0004  1F22        	clr [34]
 147  0005              #line 147 "C:\Users\JunZh\Desktop\Projects\2017_ 空气盒\开发环境和硬件验证代码\BS82C16A_示例程序\BS82C16A_20150807_LIBV413--V3\20150807_LIBV413\USER_PROGRAM\USER_PROGRAM.C"
 147  0005  1F20        	clr [32]
 148  0006              #line 148 "C:\Users\JunZh\Desktop\Projects\2017_ 空气盒\开发环境和硬件验证代码\BS82C16A_示例程序\BS82C16A_20150807_LIBV413--V3\20150807_LIBV413\USER_PROGRAM\USER_PROGRAM.C"
 148  0006  1FA1        	set [33]
 150  0007              #line 150 "C:\Users\JunZh\Desktop\Projects\2017_ 空气盒\开发环境和硬件验证代码\BS82C16A_示例程序\BS82C16A_20150807_LIBV413--V3\20150807_LIBV413\USER_PROGRAM\USER_PROGRAM.C"
 150  0007  1F3B        	clr [59]
 151  0008              #line 151 "C:\Users\JunZh\Desktop\Projects\2017_ 空气盒\开发环境和硬件验证代码\BS82C16A_示例程序\BS82C16A_20150807_LIBV413--V3\20150807_LIBV413\USER_PROGRAM\USER_PROGRAM.C"
 151  0008  1F39        	clr [57]
 152  0009              #line 152 "C:\Users\JunZh\Desktop\Projects\2017_ 空气盒\开发环境和硬件验证代码\BS82C16A_示例程序\BS82C16A_20150807_LIBV413--V3\20150807_LIBV413\USER_PROGRAM\USER_PROGRAM.C"
 152  0009  1FBA        	set [58]
 154  000A              #line 154 "C:\Users\JunZh\Desktop\Projects\2017_ 空气盒\开发环境和硬件验证代码\BS82C16A_示例程序\BS82C16A_20150807_LIBV413--V3\20150807_LIBV413\USER_PROGRAM\USER_PROGRAM.C"
 154  000A  1F43        	clr [67]
 155  000B              #line 155 "C:\Users\JunZh\Desktop\Projects\2017_ 空气盒\开发环境和硬件验证代码\BS82C16A_示例程序\BS82C16A_20150807_LIBV413--V3\20150807_LIBV413\USER_PROGRAM\USER_PROGRAM.C"
 155  000B  1F41        	clr [65]
 156  000C              #line 156 "C:\Users\JunZh\Desktop\Projects\2017_ 空气盒\开发环境和硬件验证代码\BS82C16A_示例程序\BS82C16A_20150807_LIBV413--V3\20150807_LIBV413\USER_PROGRAM\USER_PROGRAM.C"
 156  000C  0FC0        	mov a,192
 156  000D  00C2        	mov [66],a
 159  000E              #line 159 "C:\Users\JunZh\Desktop\Projects\2017_ 空气盒\开发环境和硬件验证代码\BS82C16A_示例程序\BS82C16A_20150807_LIBV413--V3\20150807_LIBV413\USER_PROGRAM\USER_PROGRAM.C"
 159  000E  0F20        	mov a,32
 159  000F  00E1        	mov [97],a
 160  0010              #line 160 "C:\Users\JunZh\Desktop\Projects\2017_ 空气盒\开发环境和硬件验证代码\BS82C16A_示例程序\BS82C16A_20150807_LIBV413--V3\20150807_LIBV413\USER_PROGRAM\USER_PROGRAM.C"
 160  0010  0FC1        	mov a,193
 160  0011  00E2        	mov [98],a
 161  0012              #line 161 "C:\Users\JunZh\Desktop\Projects\2017_ 空气盒\开发环境和硬件验证代码\BS82C16A_示例程序\BS82C16A_20150807_LIBV413--V3\20150807_LIBV413\USER_PROGRAM\USER_PROGRAM.C"
 161  0012  0FE8        	mov a,232
 161  0013  00E5        	mov [101],a
 162  0014              #line 162 "C:\Users\JunZh\Desktop\Projects\2017_ 空气盒\开发环境和硬件验证代码\BS82C16A_示例程序\BS82C16A_20150807_LIBV413--V3\20150807_LIBV413\USER_PROGRAM\USER_PROGRAM.C"
 162  0014  0F03        	mov a,3
 162  0015  00E6        	mov [102],a
 163  0016              #line 163 "C:\Users\JunZh\Desktop\Projects\2017_ 空气盒\开发环境和硬件验证代码\BS82C16A_示例程序\BS82C16A_20150807_LIBV413--V3\20150807_LIBV413\USER_PROGRAM\USER_PROGRAM.C"
 163  0016  31E1        	set [97].3
文件：USER_PROGRAM.C 编译器版本 HGASM 0202 页次8

 164  0017              #line 164 "C:\Users\JunZh\Desktop\Projects\2017_ 空气盒\开发环境和硬件验证代码\BS82C16A_示例程序\BS82C16A_20150807_LIBV413--V3\20150807_LIBV413\USER_PROGRAM\USER_PROGRAM.C"
 164  0017  368F        	clr [15].5
 165  0018              #line 165 "C:\Users\JunZh\Desktop\Projects\2017_ 空气盒\开发环境和硬件验证代码\BS82C16A_示例程序\BS82C16A_20150807_LIBV413--V3\20150807_LIBV413\USER_PROGRAM\USER_PROGRAM.C"
 165  0018  308F        	set [15].1
 168  0019              #line 168 "C:\Users\JunZh\Desktop\Projects\2017_ 空气盒\开发环境和硬件验证代码\BS82C16A_示例程序\BS82C16A_20150807_LIBV413--V3\20150807_LIBV413\USER_PROGRAM\USER_PROGRAM.C"
 168  0019  0F0C        	mov a,12
 168  001A  00AB        	mov [43],a
 169  001B              #line 169 "C:\Users\JunZh\Desktop\Projects\2017_ 空气盒\开发环境和硬件验证代码\BS82C16A_示例程序\BS82C16A_20150807_LIBV413--V3\20150807_LIBV413\USER_PROGRAM\USER_PROGRAM.C"
 169  001B  0F80        	mov a,128
 169  001C  00A9        	mov [41],a
 170  001D              #line 170 "C:\Users\JunZh\Desktop\Projects\2017_ 空气盒\开发环境和硬件验证代码\BS82C16A_示例程序\BS82C16A_20150807_LIBV413--V3\20150807_LIBV413\USER_PROGRAM\USER_PROGRAM.C"
 170  001D  0FC4        	mov a,196
 170  001E  00AA        	mov [42],a
 171  001F              #line 171 "C:\Users\JunZh\Desktop\Projects\2017_ 空气盒\开发环境和硬件验证代码\BS82C16A_示例程序\BS82C16A_20150807_LIBV413--V3\20150807_LIBV413\USER_PROGRAM\USER_PROGRAM.C"
 171  001F  3790        	clr [16].7
 172  0020              #line 172 "C:\Users\JunZh\Desktop\Projects\2017_ 空气盒\开发环境和硬件验证代码\BS82C16A_示例程序\BS82C16A_20150807_LIBV413--V3\20150807_LIBV413\USER_PROGRAM\USER_PROGRAM.C"
 172  0020  3190        	set [16].3
 175  0021              #line 175 "C:\Users\JunZh\Desktop\Projects\2017_ 空气盒\开发环境和硬件验证代码\BS82C16A_示例程序\BS82C16A_20150807_LIBV413--V3\20150807_LIBV413\USER_PROGRAM\USER_PROGRAM.C"
 175  0021  0F7F        	mov a,127
 175  0022  00B3        	mov [51],a
 176  0023              #line 176 "C:\Users\JunZh\Desktop\Projects\2017_ 空气盒\开发环境和硬件验证代码\BS82C16A_示例程序\BS82C16A_20150807_LIBV413--V3\20150807_LIBV413\USER_PROGRAM\USER_PROGRAM.C"
 176  0023  0F3F        	mov a,63
 176  0024  00B4        	mov [52],a
 177  0025              #line 177 "C:\Users\JunZh\Desktop\Projects\2017_ 空气盒\开发环境和硬件验证代码\BS82C16A_示例程序\BS82C16A_20150807_LIBV413--V3\20150807_LIBV413\USER_PROGRAM\USER_PROGRAM.C"
 177  0025  1F35        	clr [53]
 178  0026              #line 178 "C:\Users\JunZh\Desktop\Projects\2017_ 空气盒\开发环境和硬件验证代码\BS82C16A_示例程序\BS82C16A_20150807_LIBV413--V3\20150807_LIBV413\USER_PROGRAM\USER_PROGRAM.C"
 178  0026  1F36        	clr [54]
 179  0027              #line 179 "C:\Users\JunZh\Desktop\Projects\2017_ 空气盒\开发环境和硬件验证代码\BS82C16A_示例程序\BS82C16A_20150807_LIBV413--V3\20150807_LIBV413\USER_PROGRAM\USER_PROGRAM.C"
 179  0027  1F00     R  	clr _dis_data[0]
 180  0028              #line 180 "C:\Users\JunZh\Desktop\Projects\2017_ 空气盒\开发环境和硬件验证代码\BS82C16A_示例程序\BS82C16A_20150807_LIBV413--V3\20150807_LIBV413\USER_PROGRAM\USER_PROGRAM.C"
 180  0028  1F00     R  	clr _dis_data[1]
 181  0029              #line 181 "C:\Users\JunZh\Desktop\Projects\2017_ 空气盒\开发环境和硬件验证代码\BS82C16A_示例程序\BS82C16A_20150807_LIBV413--V3\20150807_LIBV413\USER_PROGRAM\USER_PROGRAM.C"
 181  0029  1F00     R  	clr _dis_data[2]
 182  002A              #line 182 "C:\Users\JunZh\Desktop\Projects\2017_ 空气盒\开发环境和硬件验证代码\BS82C16A_示例程序\BS82C16A_20150807_LIBV413--V3\20150807_LIBV413\USER_PROGRAM\USER_PROGRAM.C"
 182  002A  1F00     R  	clr _dis_data[3]
 182  002B  0003        	ret
 182  002C              _USER_PROGRAM_INITIAL endp
 182  002C              #line 182 "C:\Users\JunZh\Desktop\Projects\2017_ 空气盒\开发环境和硬件验证代码\BS82C16A_示例程序\BS82C16A_20150807_LIBV413--V3\20150807_LIBV413\USER_PROGRAM\USER_PROGRAM.C"
 182  002C              #pragma debug scope 1 1
 182  002C              public _UATR_SEND_DATA
 182  002C              #pragma debug scope 7 1
 188  002C              #line 188 "C:\Users\JunZh\Desktop\Projects\2017_ 空气盒\开发环境和硬件验证代码\BS82C16A_示例程序\BS82C16A_20150807_LIBV413--V3\20150807_LIBV413\USER_PROGRAM\USER_PROGRAM.C"
 188  0000              _UATR_SEND_DATA .section 'code'
 188  0000              _UATR_SEND_DATA proc
 193  0000              #line 193 "C:\Users\JunZh\Desktop\Projects\2017_ 空气盒\开发环境和硬件验证代码\BS82C16A_示例程序\BS82C16A_20150807_LIBV413--V3\20150807_LIBV413\USER_PROGRAM\USER_PROGRAM.C"
 193  0000  1F00     E  	clr ra
 193  0001              _L45:
 195  0001              #line 195 "C:\Users\JunZh\Desktop\Projects\2017_ 空气盒\开发环境和硬件验证代码\BS82C16A_示例程序\BS82C16A_20150807_LIBV413--V3\20150807_LIBV413\USER_PROGRAM\USER_PROGRAM.C"
 195  0001  3C28        	sz [40].0
 195  0002  2800     R  	jmp _L48
 197  0003              #line 197 "C:\Users\JunZh\Desktop\Projects\2017_ 空气盒\开发环境和硬件验证代码\BS82C16A_示例程序\BS82C16A_20150807_LIBV413--V3\20150807_LIBV413\USER_PROGRAM\USER_PROGRAM.C"
 197  0003              ;# 197 "C:\Users\JunZh\Desktop\Projects\2017_ 空气盒\开发环境和硬件验证代码\BS82C16A_示例程序\BS82C16A_20150807_LIBV413--V3\20150807_LIBV413\USER_PROGRAM\USER_PROGRAM.C" 1
 197  0003  0001        	clr wdt
 198  0004              #line 198 "C:\Users\JunZh\Desktop\Projects\2017_ 空气盒\开发环境和硬件验证代码\BS82C16A_示例程序\BS82C16A_20150807_LIBV413--V3\20150807_LIBV413\USER_PROGRAM\USER_PROGRAM.C"
 198  0004              ;# 198 "C:\Users\JunZh\Desktop\Projects\2017_ 空气盒\开发环境和硬件验证代码\BS82C16A_示例程序\BS82C16A_20150807_LIBV413--V3\20150807_LIBV413\USER_PROGRAM\USER_PROGRAM.C" 1
 198  0004  0001        	clr wdt1
 199  0005              #line 199 "C:\Users\JunZh\Desktop\Projects\2017_ 空气盒\开发环境和硬件验证代码\BS82C16A_示例程序\BS82C16A_20150807_LIBV413--V3\20150807_LIBV413\USER_PROGRAM\USER_PROGRAM.C"
 199  0005              ;# 199 "C:\Users\JunZh\Desktop\Projects\2017_ 空气盒\开发环境和硬件验证代码\BS82C16A_示例程序\BS82C16A_20150807_LIBV413--V3\20150807_LIBV413\USER_PROGRAM\USER_PROGRAM.C" 1
 199  0005  0005        	clr wdt2
 199  0006  2800     R  	jmp _L45
文件：USER_PROGRAM.C 编译器版本 HGASM 0202 页次9

 199  0007              _L48:
 201  0007              #line 201 "C:\Users\JunZh\Desktop\Projects\2017_ 空气盒\开发环境和硬件验证代码\BS82C16A_示例程序\BS82C16A_20150807_LIBV413--V3\20150807_LIBV413\USER_PROGRAM\USER_PROGRAM.C"
 201  0007  0728        	mov a,[40]
 201  0008  0085        	mov [5],a
 202  0009              #line 202 "C:\Users\JunZh\Desktop\Projects\2017_ 空气盒\开发环境和硬件验证代码\BS82C16A_示例程序\BS82C16A_20150807_LIBV413--V3\20150807_LIBV413\USER_PROGRAM\USER_PROGRAM.C"
 202  0009  0F00     R  	mov a,low offset _tx_databuf
 202  000A  0300     E  	add a,ra
 202  000B  0083        	mov mp,a
 202  000C  0F00     R  	mov a,high offset _tx_databuf
 202  000D  1F01        	clr sbp
 202  000E  1381        	adcm a,sbp
 202  000F  2000     E  	call _Crom2Prom
 202  0010  00AC        	mov [44],a
 193  0011              #line 193 "C:\Users\JunZh\Desktop\Projects\2017_ 空气盒\开发环境和硬件验证代码\BS82C16A_示例程序\BS82C16A_20150807_LIBV413--V3\20150807_LIBV413\USER_PROGRAM\USER_PROGRAM.C"
 193  0011  1480     E  	inc ra
 193  0012  0700     E  	mov a,ra
 193  0013  0A05        	sub a,5
 193  0014  390A        	snz z
 193  0015  2800     R  	jmp _L45
 193  0016  0003        	ret
 193  0017              _UATR_SEND_DATA endp
 193  0017              #line 193 "C:\Users\JunZh\Desktop\Projects\2017_ 空气盒\开发环境和硬件验证代码\BS82C16A_示例程序\BS82C16A_20150807_LIBV413--V3\20150807_LIBV413\USER_PROGRAM\USER_PROGRAM.C"
 193  0017              #pragma debug scope 1 1
 193  0017              public _USER_PROGRAM
 193  0017              #pragma debug scope 8 1
 210  0017              #line 210 "C:\Users\JunZh\Desktop\Projects\2017_ 空气盒\开发环境和硬件验证代码\BS82C16A_示例程序\BS82C16A_20150807_LIBV413--V3\20150807_LIBV413\USER_PROGRAM\USER_PROGRAM.C"
 210  0000              _USER_PROGRAM .section 'code'
 210  0000              _USER_PROGRAM proc
 211  0000              #line 211 "C:\Users\JunZh\Desktop\Projects\2017_ 空气盒\开发环境和硬件验证代码\BS82C16A_示例程序\BS82C16A_20150807_LIBV413--V3\20150807_LIBV413\USER_PROGRAM\USER_PROGRAM.C"
 211  0000  3800     E  	snz _TKS_FLAGA[0].2
 211  0001  2800     R  	jmp _L49
 213  0002              #line 213 "C:\Users\JunZh\Desktop\Projects\2017_ 空气盒\开发环境和硬件验证代码\BS82C16A_示例程序\BS82C16A_20150807_LIBV413--V3\20150807_LIBV413\USER_PROGRAM\USER_PROGRAM.C"
 213  0002  2000     E  	call _GET_KEY_BITMAP
 214  0003              #line 214 "C:\Users\JunZh\Desktop\Projects\2017_ 空气盒\开发环境和硬件验证代码\BS82C16A_示例程序\BS82C16A_20150807_LIBV413--V3\20150807_LIBV413\USER_PROGRAM\USER_PROGRAM.C"
 214  0003  3C00     R  	sz _gv8u_flag1[0].0
 214  0004  2800     R  	jmp _L52
 216  0005              #line 216 "C:\Users\JunZh\Desktop\Projects\2017_ 空气盒\开发环境和硬件验证代码\BS82C16A_示例程序\BS82C16A_20150807_LIBV413--V3\20150807_LIBV413\USER_PROGRAM\USER_PROGRAM.C"
 216  0005  1080     E  	sz _DATA_BUF[0]
 216  0006  2800     R  	jmp _LI1
 216  0007  2800     R  	jmp _L49
 216  0008              _LI1:
 218  0008              #line 218 "C:\Users\JunZh\Desktop\Projects\2017_ 空气盒\开发环境和硬件验证代码\BS82C16A_示例程序\BS82C16A_20150807_LIBV413--V3\20150807_LIBV413\USER_PROGRAM\USER_PROGRAM.C"
 218  0008  3000     R  	set _gv8u_flag1[0].0
 219  0009              #line 219 "C:\Users\JunZh\Desktop\Projects\2017_ 空气盒\开发环境和硬件验证代码\BS82C16A_示例程序\BS82C16A_20150807_LIBV413--V3\20150807_LIBV413\USER_PROGRAM\USER_PROGRAM.C"
 219  0009  3639        	clr [57].4
 220  000A              #line 220 "C:\Users\JunZh\Desktop\Projects\2017_ 空气盒\开发环境和硬件验证代码\BS82C16A_示例程序\BS82C16A_20150807_LIBV413--V3\20150807_LIBV413\USER_PROGRAM\USER_PROGRAM.C"
 220  000A  363A        	clr [58].4
 220  000B  2800     R  	jmp _L49
 220  000C              _L52:
 225  000C              #line 225 "C:\Users\JunZh\Desktop\Projects\2017_ 空气盒\开发环境和硬件验证代码\BS82C16A_示例程序\BS82C16A_20150807_LIBV413--V3\20150807_LIBV413\USER_PROGRAM\USER_PROGRAM.C"
 225  000C  1080     E  	sz _DATA_BUF[0]
 225  000D  2800     R  	jmp _L49
 227  000E              #line 227 "C:\Users\JunZh\Desktop\Projects\2017_ 空气盒\开发环境和硬件验证代码\BS82C16A_示例程序\BS82C16A_20150807_LIBV413--V3\20150807_LIBV413\USER_PROGRAM\USER_PROGRAM.C"
 227  000E  3400     R  	clr _gv8u_flag1[0].0
 228  000F              #line 228 "C:\Users\JunZh\Desktop\Projects\2017_ 空气盒\开发环境和硬件验证代码\BS82C16A_示例程序\BS82C16A_20150807_LIBV413--V3\20150807_LIBV413\USER_PROGRAM\USER_PROGRAM.C"
 228  000F  323B        	set [59].4
 229  0010              #line 229 "C:\Users\JunZh\Desktop\Projects\2017_ 空气盒\开发环境和硬件验证代码\BS82C16A_示例程序\BS82C16A_20150807_LIBV413--V3\20150807_LIBV413\USER_PROGRAM\USER_PROGRAM.C"
 229  0010  323A        	set [58].4
 229  0011              _L49:
 229  0011  0003        	ret
文件：USER_PROGRAM.C 编译器版本 HGASM 0202 页次10

 229  0012              _USER_PROGRAM endp
 229  0012              #line 229 "C:\Users\JunZh\Desktop\Projects\2017_ 空气盒\开发环境和硬件验证代码\BS82C16A_示例程序\BS82C16A_20150807_LIBV413--V3\20150807_LIBV413\USER_PROGRAM\USER_PROGRAM.C"
 229  0012              #pragma debug scope 1 1
  27  0012              #line 27 "C:\Users\JunZh\Desktop\Projects\2017_ 空气盒\开发环境和硬件验证代码\BS82C16A_示例程序\BS82C16A_20150807_LIBV413--V3\20150807_LIBV413\USER_PROGRAM\USER_PROGRAM.C"
  27  0012              public _gv8u_flag1
  27  0000              @HCCINIT0 .section 'data'
  27  0000              _gv8u_flag1	db 0
  27  0001              #pragma debug struct_end
  27  0001              #pragma debug struct_end
  27  0001              #pragma debug union_end
  27  0001              #pragma debug union_end
  27  0001              #pragma debug variable 43 1 _gv8u_flag1 "gv8u_flag1"
  27  0001              
  27  0000              @HCCINIT .section 'data'
  25  0000              #line 25 "C:\Users\JunZh\Desktop\Projects\2017_ 空气盒\开发环境和硬件验证代码\BS82C16A_示例程序\BS82C16A_20150807_LIBV413--V3\20150807_LIBV413\USER_PROGRAM\USER_PROGRAM.C"
  25  0000              public _data_buffer
  25  0001              @HCCINIT0 .section 'data'
  25  0001              _data_buffer	db 0
  25  0002              #pragma debug variable 8 1 _data_buffer "data_buffer"
  25  0002              
  25  0000              @HCCINIT .section 'data'
  24  0000              #line 24 "C:\Users\JunZh\Desktop\Projects\2017_ 空气盒\开发环境和硬件验证代码\BS82C16A_示例程序\BS82C16A_20150807_LIBV413--V3\20150807_LIBV413\USER_PROGRAM\USER_PROGRAM.C"
  24  0000              public _dis_data
  24  0002              @HCCINIT0 .section 'data'
  24  0002  0004[       _dis_data	db 4 dup(0)
            00
            ]
  24  0006              #pragma debug array 44 8 4 1
  24  0006              #pragma debug array 44 8 4 1
  24  0006              #pragma debug variable 44 1 _dis_data "dis_data"
  24  0006              
  24  0000              @HCCINIT .section 'data'
  23  0000              #line 23 "C:\Users\JunZh\Desktop\Projects\2017_ 空气盒\开发环境和硬件验证代码\BS82C16A_示例程序\BS82C16A_20150807_LIBV413--V3\20150807_LIBV413\USER_PROGRAM\USER_PROGRAM.C"
  23  0000              public _com_status
  23  0006              @HCCINIT0 .section 'data'
  23  0006              _com_status	db 0
  23  0007              #pragma debug variable 8 1 _com_status "com_status"
  23  0007              
  23  0000              @HCCINIT .section 'data'
  22  0000              #line 22 "C:\Users\JunZh\Desktop\Projects\2017_ 空气盒\开发环境和硬件验证代码\BS82C16A_示例程序\BS82C16A_20150807_LIBV413--V3\20150807_LIBV413\USER_PROGRAM\USER_PROGRAM.C"
  22  0000              public _rx_time_cnt
  22  0007              @HCCINIT0 .section 'data'
  22  0007              _rx_time_cnt	db 0
  22  0008              #pragma debug variable 8 1 _rx_time_cnt "rx_time_cnt"
  22  0008              
  22  0000              @HCCINIT .section 'data'
  21  0000              #line 21 "C:\Users\JunZh\Desktop\Projects\2017_ 空气盒\开发环境和硬件验证代码\BS82C16A_示例程序\BS82C16A_20150807_LIBV413--V3\20150807_LIBV413\USER_PROGRAM\USER_PROGRAM.C"
  21  0000              public _rx_cnt
  21  0008              @HCCINIT0 .section 'data'
  21  0008              _rx_cnt	db 0
  21  0009              #pragma debug variable 8 1 _rx_cnt "rx_cnt"
  21  0009              
  21  0000              @HCCINIT .section 'data'
  20  0000              #line 20 "C:\Users\JunZh\Desktop\Projects\2017_ 空气盒\开发环境和硬件验证代码\BS82C16A_示例程序\BS82C16A_20150807_LIBV413--V3\20150807_LIBV413\USER_PROGRAM\USER_PROGRAM.C"
  20  0000              public _tx_data
  20  0009              @HCCINIT0 .section 'data'
  20  0009  0005[       _tx_data	db 5 dup(0)
            00
            ]
  20  000E              #pragma debug array 45 8 5 1
文件：USER_PROGRAM.C 编译器版本 HGASM 0202 页次11

  20  000E              #pragma debug array 45 8 5 1
  20  000E              #pragma debug variable 45 1 _tx_data "tx_data"
  20  000E              
  20  0000              @HCCINIT .section 'data'
  19  0000              #line 19 "C:\Users\JunZh\Desktop\Projects\2017_ 空气盒\开发环境和硬件验证代码\BS82C16A_示例程序\BS82C16A_20150807_LIBV413--V3\20150807_LIBV413\USER_PROGRAM\USER_PROGRAM.C"
  19  0000              public _tx_databuf
  19  000E              @HCCINIT0 .section 'data'
  19  000E  0005[       _tx_databuf	db 5 dup(0)
            00
            ]
  19  0013              #pragma debug variable 45 1 _tx_databuf "tx_databuf"
  19  0013              
  19  0000              @HCCINIT .section 'data'
  18  0000              #line 18 "C:\Users\JunZh\Desktop\Projects\2017_ 空气盒\开发环境和硬件验证代码\BS82C16A_示例程序\BS82C16A_20150807_LIBV413--V3\20150807_LIBV413\USER_PROGRAM\USER_PROGRAM.C"
  18  0000              public _rx_data
  18  0013              @HCCINIT0 .section 'data'
  18  0013  0005[       _rx_data	db 5 dup(0)
            00
            ]
  18  0018              #pragma debug variable 45 1 _rx_data "rx_data"
  18  0018              
  18  0000              @HCCINIT .section 'data'
  17  0000              #line 17 "C:\Users\JunZh\Desktop\Projects\2017_ 空气盒\开发环境和硬件验证代码\BS82C16A_示例程序\BS82C16A_20150807_LIBV413--V3\20150807_LIBV413\USER_PROGRAM\USER_PROGRAM.C"
  17  0000              public _rx_databuf
  17  0018              @HCCINIT0 .section 'data'
  17  0018  0005[       _rx_databuf	db 5 dup(0)
            00
            ]
  17  001D              #pragma debug variable 45 1 _rx_databuf "rx_databuf"
  17  001D              
  17  0000              @HCCINIT .section 'data'
  17  0000              #pragma debug variable 8 1 ___acc "__acc" 1
  17  0000              #pragma debug struct_end
  17  0000              #pragma debug struct_end
  17  0000              #pragma debug union_end
  17  0000              #pragma debug union_end
  17  0000              #pragma debug variable 47 1 ___intc1 "__intc1" 1
  17  0000              #pragma debug struct_end
  17  0000              #pragma debug struct_end
  17  0000              #pragma debug union_end
  17  0000              #pragma debug union_end
  17  0000              #pragma debug variable 49 1 ___intc2 "__intc2" 1
  17  0000              #pragma debug struct_end
  17  0000              #pragma debug struct_end
  17  0000              #pragma debug union_end
  17  0000              #pragma debug union_end
  17  0000              #pragma debug variable 51 1 ___pa "__pa" 1
  17  0000              #pragma debug struct_end
  17  0000              #pragma debug struct_end
  17  0000              #pragma debug union_end
  17  0000              #pragma debug union_end
  17  0000              #pragma debug variable 53 1 ___pac "__pac" 1
  17  0000              #pragma debug struct_end
  17  0000              #pragma debug struct_end
  17  0000              #pragma debug union_end
  17  0000              #pragma debug union_end
  17  0000              #pragma debug variable 55 1 ___papu "__papu" 1
  17  0000              #pragma debug struct_end
  17  0000              #pragma debug struct_end
  17  0000              #pragma debug union_end
文件：USER_PROGRAM.C 编译器版本 HGASM 0202 页次12

  17  0000              #pragma debug union_end
  17  0000              #pragma debug variable 57 1 ___pb "__pb" 1
  17  0000              #pragma debug struct_end
  17  0000              #pragma debug struct_end
  17  0000              #pragma debug union_end
  17  0000              #pragma debug union_end
  17  0000              #pragma debug variable 59 1 ___pbc "__pbc" 1
  17  0000              #pragma debug struct_end
  17  0000              #pragma debug struct_end
  17  0000              #pragma debug union_end
  17  0000              #pragma debug union_end
  17  0000              #pragma debug variable 61 1 ___pbpu "__pbpu" 1
  17  0000              #pragma debug struct_end
  17  0000              #pragma debug struct_end
  17  0000              #pragma debug union_end
  17  0000              #pragma debug union_end
  17  0000              #pragma debug variable 63 1 ___usr "__usr" 1
  17  0000              #pragma debug struct_end
  17  0000              #pragma debug struct_end
  17  0000              #pragma debug union_end
  17  0000              #pragma debug union_end
  17  0000              #pragma debug variable 65 1 ___ucr1 "__ucr1" 1
  17  0000              #pragma debug struct_end
  17  0000              #pragma debug struct_end
  17  0000              #pragma debug union_end
  17  0000              #pragma debug union_end
  17  0000              #pragma debug variable 67 1 ___ucr2 "__ucr2" 1
  17  0000              #pragma debug struct_end
  17  0000              #pragma debug struct_end
  17  0000              #pragma debug union_end
  17  0000              #pragma debug union_end
  17  0000              #pragma debug variable 69 1 ___brg "__brg" 1
  17  0000              #pragma debug struct_end
  17  0000              #pragma debug struct_end
  17  0000              #pragma debug union_end
  17  0000              #pragma debug union_end
  17  0000              #pragma debug variable 71 1 ___txr_rxr "__txr_rxr" 1
  17  0000              #pragma debug struct_end
  17  0000              #pragma debug struct_end
  17  0000              #pragma debug union_end
  17  0000              #pragma debug union_end
  17  0000              #pragma debug variable 73 1 ___slcdc0 "__slcdc0" 1
  17  0000              #pragma debug struct_end
  17  0000              #pragma debug struct_end
  17  0000              #pragma debug union_end
  17  0000              #pragma debug union_end
  17  0000              #pragma debug variable 75 1 ___slcdc1 "__slcdc1" 1
  17  0000              #pragma debug struct_end
  17  0000              #pragma debug struct_end
  17  0000              #pragma debug union_end
  17  0000              #pragma debug union_end
  17  0000              #pragma debug variable 77 1 ___slcdc2 "__slcdc2" 1
  17  0000              #pragma debug struct_end
  17  0000              #pragma debug struct_end
  17  0000              #pragma debug union_end
  17  0000              #pragma debug union_end
  17  0000              #pragma debug variable 79 1 ___slcdc3 "__slcdc3" 1
  17  0000              #pragma debug struct_end
  17  0000              #pragma debug struct_end
  17  0000              #pragma debug union_end
文件：USER_PROGRAM.C 编译器版本 HGASM 0202 页次13

  17  0000              #pragma debug union_end
  17  0000              #pragma debug variable 81 1 ___pc "__pc" 1
  17  0000              #pragma debug struct_end
  17  0000              #pragma debug struct_end
  17  0000              #pragma debug union_end
  17  0000              #pragma debug union_end
  17  0000              #pragma debug variable 83 1 ___pcc "__pcc" 1
  17  0000              #pragma debug struct_end
  17  0000              #pragma debug struct_end
  17  0000              #pragma debug union_end
  17  0000              #pragma debug union_end
  17  0000              #pragma debug variable 85 1 ___pcpu "__pcpu" 1
  17  0000              #pragma debug struct_end
  17  0000              #pragma debug struct_end
  17  0000              #pragma debug union_end
  17  0000              #pragma debug union_end
  17  0000              #pragma debug variable 87 1 ___pd "__pd" 1
  17  0000              #pragma debug struct_end
  17  0000              #pragma debug struct_end
  17  0000              #pragma debug union_end
  17  0000              #pragma debug union_end
  17  0000              #pragma debug variable 89 1 ___pdc "__pdc" 1
  17  0000              #pragma debug struct_end
  17  0000              #pragma debug struct_end
  17  0000              #pragma debug union_end
  17  0000              #pragma debug union_end
  17  0000              #pragma debug variable 91 1 ___pdpu "__pdpu" 1
  17  0000              #pragma debug struct_end
  17  0000              #pragma debug struct_end
  17  0000              #pragma debug union_end
  17  0000              #pragma debug union_end
  17  0000              #pragma debug variable 93 1 ___ctm0c0 "__ctm0c0" 1
  17  0000              #pragma debug struct_end
  17  0000              #pragma debug struct_end
  17  0000              #pragma debug union_end
  17  0000              #pragma debug union_end
  17  0000              #pragma debug variable 95 1 ___ctm0c1 "__ctm0c1" 1
  17  0000              #pragma debug variable 8 1 ___ctm0al "__ctm0al" 1
  17  0000              #pragma debug variable 8 1 ___ctm0ah "__ctm0ah" 1
  17  0000              
  17  0000              ; output external variables
  17  0000              extern _DATA_BUF:byte
  17  0000              extern _TKS_FLAGA:byte
  17  0000              extern r1:byte
  17  0000              extern r2:byte
  17  0000              extern r3:byte
  17  0000              extern r4:byte
  17  0000              extern r5:byte
  17  0000              extern r6:byte
  17  0000              extern r7:byte
  17  0000              extern _GET_KEY_BITMAP:near
  17  0000              
  17  0000              ; 
  17  0000              ; Generated by holtek-gcc v3.14, Sat Feb 25 11:18:42 2017
  17  0000              ; Rebuild 10
  17  0000              ; end of file


        0 Errors, 0